GAS LISTING /tmp/ccqHBBEW.s 			page 1


   1              		.file	"dsp_dft.c"
   2              		.text
   3              		.section	.text.dsp_dft,"ax",@progbits
   4              		.globl	dsp_dft
   6              	dsp_dft:
   7              	.LFB0:
   8              		.cfi_startproc
   9 0000 4157     		pushq	%r15
  10              		.cfi_def_cfa_offset 16
  11              		.cfi_offset 15, -16
  12 0002 4156     		pushq	%r14
  13              		.cfi_def_cfa_offset 24
  14              		.cfi_offset 14, -24
  15 0004 4155     		pushq	%r13
  16              		.cfi_def_cfa_offset 32
  17              		.cfi_offset 13, -32
  18 0006 4154     		pushq	%r12
  19              		.cfi_def_cfa_offset 40
  20              		.cfi_offset 12, -40
  21 0008 55       		pushq	%rbp
  22              		.cfi_def_cfa_offset 48
  23              		.cfi_offset 6, -48
  24 0009 53       		pushq	%rbx
  25              		.cfi_def_cfa_offset 56
  26              		.cfi_offset 3, -56
  27 000a 4883EC38 		subq	$56, %rsp
  28              		.cfi_def_cfa_offset 112
  29 000e 48897C24 		movq	%rdi, 32(%rsp)
  29      20
  30 0013 4989F7   		movq	%rsi, %r15
  31 0016 48895424 		movq	%rdx, 24(%rsp)
  31      18
  32 001b 4989CD   		movq	%rcx, %r13
  33 001e B8000000 		movl	$0, %eax
  33      00
  34 0023 EB21     		jmp	.L2
  35              	.L3:
  36 0025 488D14C5 		leaq	0(,%rax,8), %rdx
  36      00000000 
  37 002d 488B7424 		movq	24(%rsp), %rsi
  37      18
  38 0032 48C70416 		movq	$0x000000000, (%rsi,%rdx)
  38      00000000 
  39 003a 49C70417 		movq	$0x000000000, (%r15,%rdx)
  39      00000000 
  40 0042 4883C001 		addq	$1, %rax
  41              	.L2:
  42 0046 4C89E9   		movq	%r13, %rcx
  43 0049 48D1E9   		shrq	%rcx
  44 004c 48894C24 		movq	%rcx, 40(%rsp)
  44      28
  45 0051 4839C1   		cmpq	%rax, %rcx
  46 0054 77CF     		ja	.L3
  47 0056 41BC0000 		movl	$0, %r12d
  47      0000
  48 005c E9220100 		jmp	.L4
  48      00
GAS LISTING /tmp/ccqHBBEW.s 			page 2


  49              	.L5:
  50 0061 4C89E0   		movq	%r12, %rax
  51 0064 48D1E8   		shrq	%rax
  52 0067 4C89E2   		movq	%r12, %rdx
  53 006a 83E201   		andl	$1, %edx
  54 006d 4809D0   		orq	%rdx, %rax
  55 0070 660FEFC0 		pxor	%xmm0, %xmm0
  56 0074 F2480F2A 		cvtsi2sdq	%rax, %xmm0
  56      C0
  57 0079 F20F58C0 		addsd	%xmm0, %xmm0
  58 007d E9C40000 		jmp	.L6
  58      00
  59              	.L7:
  60 0082 4889D8   		movq	%rbx, %rax
  61 0085 48D1E8   		shrq	%rax
  62 0088 4889DA   		movq	%rbx, %rdx
  63 008b 83E201   		andl	$1, %edx
  64 008e 4809D0   		orq	%rdx, %rax
  65 0091 660FEFC0 		pxor	%xmm0, %xmm0
  66 0095 F2480F2A 		cvtsi2sdq	%rax, %xmm0
  66      C0
  67 009a F20F58C0 		addsd	%xmm0, %xmm0
  68 009e E9C10000 		jmp	.L8
  68      00
  69              	.L9:
  70 00a3 4C89E8   		movq	%r13, %rax
  71 00a6 48D1E8   		shrq	%rax
  72 00a9 4C89EA   		movq	%r13, %rdx
  73 00ac 83E201   		andl	$1, %edx
  74 00af 4809D0   		orq	%rdx, %rax
  75 00b2 660FEFC9 		pxor	%xmm1, %xmm1
  76 00b6 F2480F2A 		cvtsi2sdq	%rax, %xmm1
  76      C8
  77 00bb F20F58C9 		addsd	%xmm1, %xmm1
  78              	.L10:
  79 00bf F20F5EC1 		divsd	%xmm1, %xmm0
  80 00c3 F20F1144 		movsd	%xmm0, 16(%rsp)
  80      2410
  81 00c9 E8000000 		call	cos@PLT
  81      00
  82 00ce F20F5944 		mulsd	8(%rsp), %xmm0
  82      2408
  83 00d4 4A8D2CE5 		leaq	0(,%r12,8), %rbp
  83      00000000 
  84 00dc 498D042F 		leaq	(%r15,%rbp), %rax
  85 00e0 F20F5800 		addsd	(%rax), %xmm0
  86 00e4 F20F1100 		movsd	%xmm0, (%rax)
  87 00e8 F2410F10 		movsd	(%r14), %xmm4
  87      26
  88 00ed F20F1164 		movsd	%xmm4, 8(%rsp)
  88      2408
  89 00f3 F20F1044 		movsd	16(%rsp), %xmm0
  89      2410
  90 00f9 E8000000 		call	sin@PLT
  90      00
  91 00fe F20F5944 		mulsd	8(%rsp), %xmm0
  91      2408
GAS LISTING /tmp/ccqHBBEW.s 			page 3


  92 0104 48036C24 		addq	24(%rsp), %rbp
  92      18
  93 0109 F20F104D 		movsd	0(%rbp), %xmm1
  93      00
  94 010e F20F5CC8 		subsd	%xmm0, %xmm1
  95 0112 F20F114D 		movsd	%xmm1, 0(%rbp)
  95      00
  96 0117 4883C301 		addq	$1, %rbx
  97              	.L12:
  98 011b 4C39EB   		cmpq	%r13, %rbx
  99 011e 735F     		jnb	.L15
 100 0120 488B4424 		movq	32(%rsp), %rax
 100      20
 101 0125 4C8D34D8 		leaq	(%rax,%rbx,8), %r14
 102 0129 F2410F10 		movsd	(%r14), %xmm2
 102      16
 103 012e F20F1154 		movsd	%xmm2, 8(%rsp)
 103      2408
 104 0134 4D85E4   		testq	%r12, %r12
 105 0137 0F8824FF 		js	.L5
 105      FFFF
 106 013d 660FEFC0 		pxor	%xmm0, %xmm0
 107 0141 F2490F2A 		cvtsi2sdq	%r12, %xmm0
 107      C4
 108              	.L6:
 109 0146 660F28C8 		movapd	%xmm0, %xmm1
 110 014a F20F590D 		mulsd	.LC1(%rip), %xmm1
 110      00000000 
 111 0152 4885DB   		testq	%rbx, %rbx
 112 0155 0F8827FF 		js	.L7
 112      FFFF
 113 015b 660FEFC0 		pxor	%xmm0, %xmm0
 114 015f F2480F2A 		cvtsi2sdq	%rbx, %xmm0
 114      C3
 115              	.L8:
 116 0164 F20F59C1 		mulsd	%xmm1, %xmm0
 117 0168 4D85ED   		testq	%r13, %r13
 118 016b 0F8832FF 		js	.L9
 118      FFFF
 119 0171 660FEFC9 		pxor	%xmm1, %xmm1
 120 0175 F2490F2A 		cvtsi2sdq	%r13, %xmm1
 120      CD
 121 017a E940FFFF 		jmp	.L10
 121      FF
 122              	.L15:
 123 017f 4983C401 		addq	$1, %r12
 124              	.L4:
 125 0183 4C396424 		cmpq	%r12, 40(%rsp)
 125      28
 126 0188 7607     		jbe	.L16
 127 018a BB000000 		movl	$0, %ebx
 127      00
 128 018f EB8A     		jmp	.L12
 129              	.L16:
 130 0191 4883C438 		addq	$56, %rsp
 131              		.cfi_def_cfa_offset 56
 132 0195 5B       		popq	%rbx
GAS LISTING /tmp/ccqHBBEW.s 			page 4


 133              		.cfi_def_cfa_offset 48
 134 0196 5D       		popq	%rbp
 135              		.cfi_def_cfa_offset 40
 136 0197 415C     		popq	%r12
 137              		.cfi_def_cfa_offset 32
 138 0199 415D     		popq	%r13
 139              		.cfi_def_cfa_offset 24
 140 019b 415E     		popq	%r14
 141              		.cfi_def_cfa_offset 16
 142 019d 415F     		popq	%r15
 143              		.cfi_def_cfa_offset 8
 144 019f C3       		ret
 145              		.cfi_endproc
 146              	.LFE0:
 148              		.section	.text.dsp_idft,"ax",@progbits
 149              		.globl	dsp_idft
 151              	dsp_idft:
 152              	.LFB1:
 153              		.cfi_startproc
 154 0000 4157     		pushq	%r15
 155              		.cfi_def_cfa_offset 16
 156              		.cfi_offset 15, -16
 157 0002 4156     		pushq	%r14
 158              		.cfi_def_cfa_offset 24
 159              		.cfi_offset 14, -24
 160 0004 4155     		pushq	%r13
 161              		.cfi_def_cfa_offset 32
 162              		.cfi_offset 13, -32
 163 0006 4154     		pushq	%r12
 164              		.cfi_def_cfa_offset 40
 165              		.cfi_offset 12, -40
 166 0008 55       		pushq	%rbp
 167              		.cfi_def_cfa_offset 48
 168              		.cfi_offset 6, -48
 169 0009 53       		pushq	%rbx
 170              		.cfi_def_cfa_offset 56
 171              		.cfi_offset 3, -56
 172 000a 4883EC38 		subq	$56, %rsp
 173              		.cfi_def_cfa_offset 112
 174 000e 48897C24 		movq	%rdi, 16(%rsp)
 174      10
 175 0013 4989F7   		movq	%rsi, %r15
 176 0016 48895424 		movq	%rdx, 24(%rsp)
 176      18
 177 001b 4989CE   		movq	%rcx, %r14
 178 001e F20F1005 		movsd	.LC2(%rip), %xmm0
 178      00000000 
 179 0026 F20F5906 		mulsd	(%rsi), %xmm0
 180 002a F20F1106 		movsd	%xmm0, (%rsi)
 181 002e F20F1005 		movsd	.LC3(%rip), %xmm0
 181      00000000 
 182 0036 F20F5902 		mulsd	(%rdx), %xmm0
 183 003a F20F1102 		movsd	%xmm0, (%rdx)
 184 003e 4885C9   		testq	%rcx, %rcx
 185 0041 7830     		js	.L18
 186 0043 660FEFFF 		pxor	%xmm7, %xmm7
 187 0047 F2480F2A 		cvtsi2sdq	%rcx, %xmm7
GAS LISTING /tmp/ccqHBBEW.s 			page 5


 187      F9
 188 004c F20F117C 		movsd	%xmm7, 32(%rsp)
 188      2420
 189              	.L19:
 190 0052 F20F104C 		movsd	32(%rsp), %xmm1
 190      2420
 191 0058 F20F590D 		mulsd	.LC2(%rip), %xmm1
 191      00000000 
 192 0060 660F28D1 		movapd	%xmm1, %xmm2
 193 0064 660F5715 		xorpd	.LC4(%rip), %xmm2
 193      00000000 
 194 006c BA010000 		movl	$1, %edx
 194      00
 195 0071 EB51     		jmp	.L20
 196              	.L18:
 197 0073 4889C8   		movq	%rcx, %rax
 198 0076 48D1E8   		shrq	%rax
 199 0079 4889CA   		movq	%rcx, %rdx
 200 007c 83E201   		andl	$1, %edx
 201 007f 4809D0   		orq	%rdx, %rax
 202 0082 660FEFC0 		pxor	%xmm0, %xmm0
 203 0086 F2480F2A 		cvtsi2sdq	%rax, %xmm0
 203      C0
 204 008b F20F58C0 		addsd	%xmm0, %xmm0
 205 008f F20F1144 		movsd	%xmm0, 32(%rsp)
 205      2420
 206 0095 EBBB     		jmp	.L19
 207              	.L21:
 208 0097 488D04D5 		leaq	0(,%rdx,8), %rax
 208      00000000 
 209 009f 498D0C07 		leaq	(%r15,%rax), %rcx
 210 00a3 F20F1001 		movsd	(%rcx), %xmm0
 211 00a7 F20F5EC1 		divsd	%xmm1, %xmm0
 212 00ab F20F1101 		movsd	%xmm0, (%rcx)
 213 00af 48034424 		addq	24(%rsp), %rax
 213      18
 214 00b4 F20F1000 		movsd	(%rax), %xmm0
 215 00b8 F20F5EC2 		divsd	%xmm2, %xmm0
 216 00bc F20F1100 		movsd	%xmm0, (%rax)
 217 00c0 4883C201 		addq	$1, %rdx
 218              	.L20:
 219 00c4 4C89F0   		movq	%r14, %rax
 220 00c7 48D1E8   		shrq	%rax
 221 00ca 48894424 		movq	%rax, 40(%rsp)
 221      28
 222 00cf 4839D0   		cmpq	%rdx, %rax
 223 00d2 77C3     		ja	.L21
 224 00d4 B8000000 		movl	$0, %eax
 224      00
 225 00d9 EB11     		jmp	.L22
 226              	.L23:
 227 00db 488B7C24 		movq	16(%rsp), %rdi
 227      10
 228 00e0 48C704C7 		movq	$0x000000000, (%rdi,%rax,8)
 228      00000000 
 229 00e8 4883C001 		addq	$1, %rax
 230              	.L22:
GAS LISTING /tmp/ccqHBBEW.s 			page 6


 231 00ec 4C39F0   		cmpq	%r14, %rax
 232 00ef 72EA     		jb	.L23
 233 00f1 41BC0000 		movl	$0, %r12d
 233      0000
 234 00f7 E9E90000 		jmp	.L24
 234      00
 235              	.L25:
 236 00fc 4C89E0   		movq	%r12, %rax
 237 00ff 48D1E8   		shrq	%rax
 238 0102 4C89E2   		movq	%r12, %rdx
 239 0105 83E201   		andl	$1, %edx
 240 0108 4809D0   		orq	%rdx, %rax
 241 010b 660FEFC0 		pxor	%xmm0, %xmm0
 242 010f F2480F2A 		cvtsi2sdq	%rax, %xmm0
 242      C0
 243 0114 F20F58C0 		addsd	%xmm0, %xmm0
 244 0118 E9A10000 		jmp	.L26
 244      00
 245              	.L27:
 246 011d 4889D8   		movq	%rbx, %rax
 247 0120 48D1E8   		shrq	%rax
 248 0123 4889DA   		movq	%rbx, %rdx
 249 0126 83E201   		andl	$1, %edx
 250 0129 4809D0   		orq	%rdx, %rax
 251 012c 660FEFC0 		pxor	%xmm0, %xmm0
 252 0130 F2480F2A 		cvtsi2sdq	%rax, %xmm0
 252      C0
 253 0135 F20F58C0 		addsd	%xmm0, %xmm0
 254              	.L28:
 255 0139 F20F59C1 		mulsd	%xmm1, %xmm0
 256 013d F20F5E44 		divsd	32(%rsp), %xmm0
 256      2420
 257 0143 F20F1144 		movsd	%xmm0, 8(%rsp)
 257      2408
 258 0149 E8000000 		call	cos@PLT
 258      00
 259 014e F20F5904 		mulsd	(%rsp), %xmm0
 259      24
 260 0153 488B4424 		movq	16(%rsp), %rax
 260      10
 261 0158 488D2CD8 		leaq	(%rax,%rbx,8), %rbp
 262 015c F20F5845 		addsd	0(%rbp), %xmm0
 262      00
 263 0161 F20F1145 		movsd	%xmm0, 0(%rbp)
 263      00
 264 0166 488B4424 		movq	24(%rsp), %rax
 264      18
 265 016b F2420F10 		movsd	(%rax,%r13), %xmm6
 265      3428
 266 0171 F20F1134 		movsd	%xmm6, (%rsp)
 266      24
 267 0176 F20F1044 		movsd	8(%rsp), %xmm0
 267      2408
 268 017c E8000000 		call	sin@PLT
 268      00
 269 0181 F20F5904 		mulsd	(%rsp), %xmm0
 269      24
GAS LISTING /tmp/ccqHBBEW.s 			page 7


 270 0186 F20F5845 		addsd	0(%rbp), %xmm0
 270      00
 271 018b F20F1145 		movsd	%xmm0, 0(%rbp)
 271      00
 272 0190 4883C301 		addq	$1, %rbx
 273              	.L30:
 274 0194 4C39F3   		cmpq	%r14, %rbx
 275 0197 7348     		jnb	.L33
 276 0199 4E8D2CE5 		leaq	0(,%r12,8), %r13
 276      00000000 
 277 01a1 F2430F10 		movsd	(%r15,%r13), %xmm3
 277      1C2F
 278 01a7 F20F111C 		movsd	%xmm3, (%rsp)
 278      24
 279 01ac 4D85E4   		testq	%r12, %r12
 280 01af 0F8847FF 		js	.L25
 280      FFFF
 281 01b5 660FEFC0 		pxor	%xmm0, %xmm0
 282 01b9 F2490F2A 		cvtsi2sdq	%r12, %xmm0
 282      C4
 283              	.L26:
 284 01be 660F28C8 		movapd	%xmm0, %xmm1
 285 01c2 F20F590D 		mulsd	.LC1(%rip), %xmm1
 285      00000000 
 286 01ca 4885DB   		testq	%rbx, %rbx
 287 01cd 0F884AFF 		js	.L27
 287      FFFF
 288 01d3 660FEFC0 		pxor	%xmm0, %xmm0
 289 01d7 F2480F2A 		cvtsi2sdq	%rbx, %xmm0
 289      C3
 290 01dc E958FFFF 		jmp	.L28
 290      FF
 291              	.L33:
 292 01e1 4983C401 		addq	$1, %r12
 293              	.L24:
 294 01e5 4C396424 		cmpq	%r12, 40(%rsp)
 294      28
 295 01ea 7607     		jbe	.L34
 296 01ec BB000000 		movl	$0, %ebx
 296      00
 297 01f1 EBA1     		jmp	.L30
 298              	.L34:
 299 01f3 4883C438 		addq	$56, %rsp
 300              		.cfi_def_cfa_offset 56
 301 01f7 5B       		popq	%rbx
 302              		.cfi_def_cfa_offset 48
 303 01f8 5D       		popq	%rbp
 304              		.cfi_def_cfa_offset 40
 305 01f9 415C     		popq	%r12
 306              		.cfi_def_cfa_offset 32
 307 01fb 415D     		popq	%r13
 308              		.cfi_def_cfa_offset 24
 309 01fd 415E     		popq	%r14
 310              		.cfi_def_cfa_offset 16
 311 01ff 415F     		popq	%r15
 312              		.cfi_def_cfa_offset 8
 313 0201 C3       		ret
GAS LISTING /tmp/ccqHBBEW.s 			page 8


 314              		.cfi_endproc
 315              	.LFE1:
 317              		.section	.text.dsp_dft_magnitude,"ax",@progbits
 318              		.globl	dsp_dft_magnitude
 320              	dsp_dft_magnitude:
 321              	.LFB2:
 322              		.cfi_startproc
 323 0000 4157     		pushq	%r15
 324              		.cfi_def_cfa_offset 16
 325              		.cfi_offset 15, -16
 326 0002 4156     		pushq	%r14
 327              		.cfi_def_cfa_offset 24
 328              		.cfi_offset 14, -24
 329 0004 4155     		pushq	%r13
 330              		.cfi_def_cfa_offset 32
 331              		.cfi_offset 13, -32
 332 0006 4154     		pushq	%r12
 333              		.cfi_def_cfa_offset 40
 334              		.cfi_offset 12, -40
 335 0008 55       		pushq	%rbp
 336              		.cfi_def_cfa_offset 48
 337              		.cfi_offset 6, -48
 338 0009 53       		pushq	%rbx
 339              		.cfi_def_cfa_offset 56
 340              		.cfi_offset 3, -56
 341 000a 4883EC18 		subq	$24, %rsp
 342              		.cfi_def_cfa_offset 80
 343 000e 4989FF   		movq	%rdi, %r15
 344 0011 4989F6   		movq	%rsi, %r14
 345 0014 4989D5   		movq	%rdx, %r13
 346 0017 4989CC   		movq	%rcx, %r12
 347 001a BD000000 		movl	$0, %ebp
 347      00
 348 001f EB4B     		jmp	.L36
 349              	.L37:
 350 0021 488D1CED 		leaq	0(,%rbp,8), %rbx
 350      00000000 
 351 0029 F20F100D 		movsd	.LC5(%rip), %xmm1
 351      00000000 
 352 0031 F2410F10 		movsd	(%r14,%rbx), %xmm0
 352      041E
 353 0037 E8000000 		call	pow@PLT
 353      00
 354 003c F20F1144 		movsd	%xmm0, 8(%rsp)
 354      2408
 355 0042 F20F100D 		movsd	.LC5(%rip), %xmm1
 355      00000000 
 356 004a F2410F10 		movsd	0(%r13,%rbx), %xmm0
 356      441D00
 357 0051 E8000000 		call	pow@PLT
 357      00
 358 0056 4C01FB   		addq	%r15, %rbx
 359 0059 F20F5844 		addsd	8(%rsp), %xmm0
 359      2408
 360 005f E8000000 		call	sqrt@PLT
 360      00
 361 0064 F20F1103 		movsd	%xmm0, (%rbx)
GAS LISTING /tmp/ccqHBBEW.s 			page 9


 362 0068 4883C501 		addq	$1, %rbp
 363              	.L36:
 364 006c 4C39E5   		cmpq	%r12, %rbp
 365 006f 72B0     		jb	.L37
 366 0071 4883C418 		addq	$24, %rsp
 367              		.cfi_def_cfa_offset 56
 368 0075 5B       		popq	%rbx
 369              		.cfi_def_cfa_offset 48
 370 0076 5D       		popq	%rbp
 371              		.cfi_def_cfa_offset 40
 372 0077 415C     		popq	%r12
 373              		.cfi_def_cfa_offset 32
 374 0079 415D     		popq	%r13
 375              		.cfi_def_cfa_offset 24
 376 007b 415E     		popq	%r14
 377              		.cfi_def_cfa_offset 16
 378 007d 415F     		popq	%r15
 379              		.cfi_def_cfa_offset 8
 380 007f C3       		ret
 381              		.cfi_endproc
 382              	.LFE2:
 384              		.section	.text.dsp_rect2polar,"ax",@progbits
 385              		.globl	dsp_rect2polar
 387              	dsp_rect2polar:
 388              	.LFB3:
 389              		.cfi_startproc
 390 0000 4157     		pushq	%r15
 391              		.cfi_def_cfa_offset 16
 392              		.cfi_offset 15, -16
 393 0002 4156     		pushq	%r14
 394              		.cfi_def_cfa_offset 24
 395              		.cfi_offset 14, -24
 396 0004 4155     		pushq	%r13
 397              		.cfi_def_cfa_offset 32
 398              		.cfi_offset 13, -32
 399 0006 4154     		pushq	%r12
 400              		.cfi_def_cfa_offset 40
 401              		.cfi_offset 12, -40
 402 0008 55       		pushq	%rbp
 403              		.cfi_def_cfa_offset 48
 404              		.cfi_offset 6, -48
 405 0009 53       		pushq	%rbx
 406              		.cfi_def_cfa_offset 56
 407              		.cfi_offset 3, -56
 408 000a 4883EC38 		subq	$56, %rsp
 409              		.cfi_def_cfa_offset 112
 410 000e 4989FF   		movq	%rdi, %r15
 411 0011 48897424 		movq	%rsi, 40(%rsp)
 411      28
 412 0016 48895424 		movq	%rdx, 24(%rsp)
 412      18
 413 001b 48894C24 		movq	%rcx, 32(%rsp)
 413      20
 414 0020 4C894424 		movq	%r8, 16(%rsp)
 414      10
 415 0025 41BC0000 		movl	$0, %r12d
 415      0000
GAS LISTING /tmp/ccqHBBEW.s 			page 10


 416 002b EB6D     		jmp	.L40
 417              	.L57:
 418 002d F20F100D 		movsd	.LC6(%rip), %xmm1
 418      00000000 
 419 0035 F20F1005 		movsd	.LC7(%rip), %xmm0
 419      00000000 
 420 003d E8000000 		call	pow@PLT
 420      00
 421 0042 F20F1145 		movsd	%xmm0, 0(%rbp)
 421      00
 422 0047 F2410F10 		movsd	0(%r13), %xmm1
 422      4D00
 423 004d 488B4424 		movq	40(%rsp), %rax
 423      28
 424 0052 4C8D3418 		leaq	(%rax,%rbx), %r14
 425 0056 F20F5EC8 		divsd	%xmm0, %xmm1
 426 005a 660F28C1 		movapd	%xmm1, %xmm0
 427 005e E8000000 		call	atan@PLT
 427      00
 428 0063 F2410F11 		movsd	%xmm0, (%r14)
 428      06
 429 0068 E9A60000 		jmp	.L41
 429      00
 430              	.L58:
 431 006d 66410F2E 		ucomisd	0(%r13), %xmm0
 431      4500
 432 0073 0F86A900 		jbe	.L43
 432      0000
 433 0079 488B4424 		movq	40(%rsp), %rax
 433      28
 434 007e 4801D8   		addq	%rbx, %rax
 435 0081 F20F1000 		movsd	(%rax), %xmm0
 436 0085 F20F5C05 		subsd	.LC8(%rip), %xmm0
 436      00000000 
 437 008d F20F1100 		movsd	%xmm0, (%rax)
 438 0091 E98C0000 		jmp	.L43
 438      00
 439              	.L46:
 440 0096 4983C401 		addq	$1, %r12
 441              	.L40:
 442 009a 4C3B6424 		cmpq	16(%rsp), %r12
 442      10
 443 009f 0F83BA00 		jnb	.L56
 443      0000
 444 00a5 4A8D1CE5 		leaq	0(,%r12,8), %rbx
 444      00000000 
 445 00ad 488B4424 		movq	24(%rsp), %rax
 445      18
 446 00b2 488D2C18 		leaq	(%rax,%rbx), %rbp
 447 00b6 F20F100D 		movsd	.LC5(%rip), %xmm1
 447      00000000 
 448 00be F20F1045 		movsd	0(%rbp), %xmm0
 448      00
 449 00c3 E8000000 		call	pow@PLT
 449      00
 450 00c8 F20F1144 		movsd	%xmm0, 8(%rsp)
 450      2408
GAS LISTING /tmp/ccqHBBEW.s 			page 11


 451 00ce 488B4424 		movq	32(%rsp), %rax
 451      20
 452 00d3 4C8D2C18 		leaq	(%rax,%rbx), %r13
 453 00d7 F20F100D 		movsd	.LC5(%rip), %xmm1
 453      00000000 
 454 00df F2410F10 		movsd	0(%r13), %xmm0
 454      4500
 455 00e5 E8000000 		call	pow@PLT
 455      00
 456 00ea 4D8D341F 		leaq	(%r15,%rbx), %r14
 457 00ee F20F5844 		addsd	8(%rsp), %xmm0
 457      2408
 458 00f4 E8000000 		call	sqrt@PLT
 458      00
 459 00f9 F2410F11 		movsd	%xmm0, (%r14)
 459      06
 460 00fe F20F1045 		movsd	0(%rbp), %xmm0
 460      00
 461 0103 660F2E05 		ucomisd	.LC0(%rip), %xmm0
 461      00000000 
 462 010b 7A06     		jp	.L41
 463 010d 0F841AFF 		je	.L57
 463      FFFF
 464              	.L41:
 465 0113 660FEFC0 		pxor	%xmm0, %xmm0
 466 0117 660F2E45 		ucomisd	0(%rbp), %xmm0
 466      00
 467 011c 0F874BFF 		ja	.L58
 467      FFFF
 468              	.L43:
 469 0122 660FEFC0 		pxor	%xmm0, %xmm0
 470 0126 660F2E45 		ucomisd	0(%rbp), %xmm0
 470      00
 471 012b 0F8665FF 		jbe	.L46
 471      FFFF
 472 0131 F2410F10 		movsd	0(%r13), %xmm0
 472      4500
 473 0137 660F2E05 		ucomisd	.LC0(%rip), %xmm0
 473      00000000 
 474 013f 0F8251FF 		jb	.L46
 474      FFFF
 475 0145 48035C24 		addq	40(%rsp), %rbx
 475      28
 476 014a F20F1005 		movsd	.LC8(%rip), %xmm0
 476      00000000 
 477 0152 F20F5803 		addsd	(%rbx), %xmm0
 478 0156 F20F1103 		movsd	%xmm0, (%rbx)
 479 015a E937FFFF 		jmp	.L46
 479      FF
 480              	.L56:
 481 015f 4883C438 		addq	$56, %rsp
 482              		.cfi_def_cfa_offset 56
 483 0163 5B       		popq	%rbx
 484              		.cfi_def_cfa_offset 48
 485 0164 5D       		popq	%rbp
 486              		.cfi_def_cfa_offset 40
 487 0165 415C     		popq	%r12
GAS LISTING /tmp/ccqHBBEW.s 			page 12


 488              		.cfi_def_cfa_offset 32
 489 0167 415D     		popq	%r13
 490              		.cfi_def_cfa_offset 24
 491 0169 415E     		popq	%r14
 492              		.cfi_def_cfa_offset 16
 493 016b 415F     		popq	%r15
 494              		.cfi_def_cfa_offset 8
 495 016d C3       		ret
 496              		.cfi_endproc
 497              	.LFE3:
 499              		.section	.rodata.cst8,"aM",@progbits,8
 500              		.align 8
 501              	.LC0:
 502 0000 00000000 		.long	0
 503 0004 00000000 		.long	0
 504              		.align 8
 505              	.LC1:
 506 0008 182D4454 		.long	1413754136
 507 000c FB211940 		.long	1075388923
 508              		.align 8
 509              	.LC2:
 510 0010 00000000 		.long	0
 511 0014 0000E03F 		.long	1071644672
 512              		.align 8
 513              	.LC3:
 514 0018 00000000 		.long	0
 515 001c 0000E0BF 		.long	-1075838976
 516              		.section	.rodata.cst16,"aM",@progbits,16
 517              		.align 16
 518              	.LC4:
 519 0000 00000000 		.long	0
 520 0004 00000080 		.long	-2147483648
 521 0008 00000000 		.long	0
 522 000c 00000000 		.long	0
 523              		.section	.rodata.cst8
 524              		.align 8
 525              	.LC5:
 526 0020 00000000 		.long	0
 527 0024 00000040 		.long	1073741824
 528              		.align 8
 529              	.LC6:
 530 0028 00000000 		.long	0
 531 002c 000034C0 		.long	-1070333952
 532              		.align 8
 533              	.LC7:
 534 0030 00000000 		.long	0
 535 0034 00002440 		.long	1076101120
 536              		.align 8
 537              	.LC8:
 538 0038 182D4454 		.long	1413754136
 539 003c FB210940 		.long	1074340347
 540              		.ident	"GCC: (Ubuntu 7.5.0-3ubuntu1~18.04) 7.5.0"
 541              		.section	.note.GNU-stack,"",@progbits
GAS LISTING /tmp/ccqHBBEW.s 			page 13

