GAS LISTING /tmp/ccrHHPgQ.s 			page 1


   1              		.file	"main.c"
   2              		.text
   3              		.section	.rodata.check_mem_alloc.str1.1,"aMS",@progbits,1
   4              	.LC0:
   5 0000 4D656D6D 		.string	"Memmory allocation error!\n"
   5      6F727920 
   5      616C6C6F 
   5      63617469 
   5      6F6E2065 
   6              		.section	.text.check_mem_alloc,"ax",@progbits
   8              	check_mem_alloc:
   9              	.LFB38:
  10              		.cfi_startproc
  11 0000 4885FF   		testq	%rdi, %rdi
  12 0003 7402     		je	.L6
  13 0005 F3C3     		rep ret
  14              	.L6:
  15 0007 4883EC08 		subq	$8, %rsp
  16              		.cfi_def_cfa_offset 16
  17 000b 488D1500 		leaq	.LC0(%rip), %rdx
  17      000000
  18 0012 BE010000 		movl	$1, %esi
  18      00
  19 0017 488B3D00 		movq	stderr(%rip), %rdi
  19      000000
  20 001e B8000000 		movl	$0, %eax
  20      00
  21 0023 E8000000 		call	__fprintf_chk@PLT
  21      00
  22 0028 BF010000 		movl	$1, %edi
  22      00
  23 002d E8000000 		call	exit@PLT
  23      00
  24              		.cfi_endproc
  25              	.LFE38:
  27              		.section	.text.prepare_path,"ax",@progbits
  28              		.globl	prepare_path
  30              	prepare_path:
  31              	.LFB39:
  32              		.cfi_startproc
  33 0000 4155     		pushq	%r13
  34              		.cfi_def_cfa_offset 16
  35              		.cfi_offset 13, -16
  36 0002 4154     		pushq	%r12
  37              		.cfi_def_cfa_offset 24
  38              		.cfi_offset 12, -24
  39 0004 55       		pushq	%rbp
  40              		.cfi_def_cfa_offset 32
  41              		.cfi_offset 6, -32
  42 0005 53       		pushq	%rbx
  43              		.cfi_def_cfa_offset 40
  44              		.cfi_offset 3, -40
  45 0006 4883EC08 		subq	$8, %rsp
  46              		.cfi_def_cfa_offset 48
  47 000a 4989FD   		movq	%rdi, %r13
  48 000d 4989F4   		movq	%rsi, %r12
  49 0010 E8000000 		call	strlen@PLT
GAS LISTING /tmp/ccrHHPgQ.s 			page 2


  49      00
  50 0015 4889C3   		movq	%rax, %rbx
  51 0018 4C89E7   		movq	%r12, %rdi
  52 001b E8000000 		call	strlen@PLT
  52      00
  53 0020 8D7C1802 		leal	2(%rax,%rbx), %edi
  54 0024 4863FF   		movslq	%edi, %rdi
  55 0027 E8000000 		call	malloc@PLT
  55      00
  56 002c 4889C5   		movq	%rax, %rbp
  57 002f 4C89EE   		movq	%r13, %rsi
  58 0032 4889C7   		movq	%rax, %rdi
  59 0035 E8000000 		call	strcpy@PLT
  59      00
  60 003a 4863DB   		movslq	%ebx, %rbx
  61 003d C6441D00 		movb	$47, 0(%rbp,%rbx)
  61      2F
  62 0042 488D7C1D 		leaq	1(%rbp,%rbx), %rdi
  62      01
  63 0047 4C89E6   		movq	%r12, %rsi
  64 004a E8000000 		call	strcpy@PLT
  64      00
  65 004f 4889E8   		movq	%rbp, %rax
  66 0052 4883C408 		addq	$8, %rsp
  67              		.cfi_def_cfa_offset 40
  68 0056 5B       		popq	%rbx
  69              		.cfi_def_cfa_offset 32
  70 0057 5D       		popq	%rbp
  71              		.cfi_def_cfa_offset 24
  72 0058 415C     		popq	%r12
  73              		.cfi_def_cfa_offset 16
  74 005a 415D     		popq	%r13
  75              		.cfi_def_cfa_offset 8
  76 005c C3       		ret
  77              		.cfi_endproc
  78              	.LFE39:
  80              		.section	.rodata.create_dat_file.str1.1,"aMS",@progbits,1
  81              	.LC1:
  82 0000 772B00   		.string	"w+"
  83              		.section	.rodata.create_dat_file.str1.8,"aMS",@progbits,1
  84              		.align 8
  85              	.LC2:
  86 0000 416E2065 		.string	"An error occured in file creation: %s\n"
  86      72726F72 
  86      206F6363 
  86      75726564 
  86      20696E20 
  87              		.section	.rodata.create_dat_file.str1.1
  88              	.LC3:
  89 0003 0A256600 		.string	"\n%f"
  90              	.LC4:
  91 0007 25732063 		.string	"%s created. (%d elements)\n"
  91      72656174 
  91      65642E20 
  91      28256420 
  91      656C656D 
  92              		.section	.text.create_dat_file,"ax",@progbits
GAS LISTING /tmp/ccrHHPgQ.s 			page 3


  93              		.globl	create_dat_file
  95              	create_dat_file:
  96              	.LFB37:
  97              		.cfi_startproc
  98 0000 4156     		pushq	%r14
  99              		.cfi_def_cfa_offset 16
 100              		.cfi_offset 14, -16
 101 0002 4155     		pushq	%r13
 102              		.cfi_def_cfa_offset 24
 103              		.cfi_offset 13, -24
 104 0004 4154     		pushq	%r12
 105              		.cfi_def_cfa_offset 32
 106              		.cfi_offset 12, -32
 107 0006 55       		pushq	%rbp
 108              		.cfi_def_cfa_offset 40
 109              		.cfi_offset 6, -40
 110 0007 53       		pushq	%rbx
 111              		.cfi_def_cfa_offset 48
 112              		.cfi_offset 3, -48
 113 0008 4989D5   		movq	%rdx, %r13
 114 000b 4989CC   		movq	%rcx, %r12
 115 000e E8000000 		call	prepare_path
 115      00
 116 0013 4885C0   		testq	%rax, %rax
 117 0016 7421     		je	.L15
 118 0018 4989C6   		movq	%rax, %r14
 119 001b 488D3500 		leaq	.LC1(%rip), %rsi
 119      000000
 120 0022 4889C7   		movq	%rax, %rdi
 121 0025 E8000000 		call	fopen@PLT
 121      00
 122 002a 4889C5   		movq	%rax, %rbp
 123 002d 4885C0   		testq	%rax, %rax
 124 0030 742E     		je	.L16
 125 0032 BB000000 		movl	$0, %ebx
 125      00
 126 0037 EB75     		jmp	.L11
 127              	.L15:
 128 0039 488D1500 		leaq	.LC0(%rip), %rdx
 128      000000
 129 0040 BE010000 		movl	$1, %esi
 129      00
 130 0045 488B3D00 		movq	stderr(%rip), %rdi
 130      000000
 131 004c B8000000 		movl	$0, %eax
 131      00
 132 0051 E8000000 		call	__fprintf_chk@PLT
 132      00
 133 0056 BF010000 		movl	$1, %edi
 133      00
 134 005b E8000000 		call	exit@PLT
 134      00
 135              	.L16:
 136 0060 4C89F1   		movq	%r14, %rcx
 137 0063 488D1500 		leaq	.LC2(%rip), %rdx
 137      000000
 138 006a BE010000 		movl	$1, %esi
GAS LISTING /tmp/ccrHHPgQ.s 			page 4


 138      00
 139 006f 488B3D00 		movq	stderr(%rip), %rdi
 139      000000
 140 0076 B8000000 		movl	$0, %eax
 140      00
 141 007b E8000000 		call	__fprintf_chk@PLT
 141      00
 142 0080 BF010000 		movl	$1, %edi
 142      00
 143 0085 E8000000 		call	exit@PLT
 143      00
 144              	.L12:
 145 008a F2410F10 		movsd	0(%r13,%rbx,8), %xmm0
 145      44DD00
 146 0091 488D1500 		leaq	.LC3(%rip), %rdx
 146      000000
 147 0098 BE010000 		movl	$1, %esi
 147      00
 148 009d 4889EF   		movq	%rbp, %rdi
 149 00a0 B8010000 		movl	$1, %eax
 149      00
 150 00a5 E8000000 		call	__fprintf_chk@PLT
 150      00
 151 00aa 4883C301 		addq	$1, %rbx
 152              	.L11:
 153 00ae 4C39E3   		cmpq	%r12, %rbx
 154 00b1 72D7     		jb	.L12
 155 00b3 4D89E0   		movq	%r12, %r8
 156 00b6 4C89F1   		movq	%r14, %rcx
 157 00b9 488D1500 		leaq	.LC4(%rip), %rdx
 157      000000
 158 00c0 BE010000 		movl	$1, %esi
 158      00
 159 00c5 488B3D00 		movq	stdout(%rip), %rdi
 159      000000
 160 00cc B8000000 		movl	$0, %eax
 160      00
 161 00d1 E8000000 		call	__fprintf_chk@PLT
 161      00
 162 00d6 4889EF   		movq	%rbp, %rdi
 163 00d9 E8000000 		call	fclose@PLT
 163      00
 164 00de 4C89F7   		movq	%r14, %rdi
 165 00e1 E8000000 		call	free@PLT
 165      00
 166 00e6 5B       		popq	%rbx
 167              		.cfi_def_cfa_offset 40
 168 00e7 5D       		popq	%rbp
 169              		.cfi_def_cfa_offset 32
 170 00e8 415C     		popq	%r12
 171              		.cfi_def_cfa_offset 24
 172 00ea 415D     		popq	%r13
 173              		.cfi_def_cfa_offset 16
 174 00ec 415E     		popq	%r14
 175              		.cfi_def_cfa_offset 8
 176 00ee C3       		ret
 177              		.cfi_endproc
GAS LISTING /tmp/ccrHHPgQ.s 			page 5


 178              	.LFE37:
 180              		.section	.rodata.main.str1.1,"aMS",@progbits,1
 181              	.LC5:
 182 0000 54657374 		.string	"Testing DSP library\n"
 182      696E6720 
 182      44535020 
 182      6C696272 
 182      6172790A 
 183              	.LC6:
 184 0015 3D3D3D3D 		.string	"===================\n"
 184      3D3D3D3D 
 184      3D3D3D3D 
 184      3D3D3D3D 
 184      3D3D3D0A 
 185              	.LC7:
 186 002a 44657665 		.string	"Developer: Istvan Milak\n\n"
 186      6C6F7065 
 186      723A2049 
 186      73747661 
 186      6E204D69 
 187              		.section	.rodata.main.str1.8,"aMS",@progbits,1
 188              		.align 8
 189              	.LC8:
 190 0000 54686520 		.string	"The software generate the calculation result *.dat files\n"
 190      736F6674 
 190      77617265 
 190      2067656E 
 190      65726174 
 191 003a 00000000 		.align 8
 191      0000
 192              	.LC9:
 193 0040 596F7520 		.string	"You can find the correspondig dat files in test/dat/* dirs with html output and gnuplot s
 193      63616E20 
 193      66696E64 
 193      20746865 
 193      20636F72 
 194              		.section	.rodata.main.str1.1
 195              	.LC10:
 196 0044 0A00     		.string	"\n"
 197              	.LC11:
 198 0046 2F70726F 		.string	"/proc/self/exe"
 198      632F7365 
 198      6C662F65 
 198      786500
 199              	.LC12:
 200 0055 46756C6C 		.string	"Full path of executable:\t%s\n"
 200      20706174 
 200      68206F66 
 200      20657865 
 200      63757461 
 201              		.section	.rodata.main.str1.8
 202 00a1 00000000 		.align 8
 202      000000
 203              	.LC13:
 204 00a8 4162736F 		.string	"Absolute path of test directory:\t%s\n\n"
 204      6C757465 
 204      20706174 
GAS LISTING /tmp/ccrHHPgQ.s 			page 6


 204      68206F66 
 204      20746573 
 205 00ce 0000     		.align 8
 206              	.LC14:
 207 00d0 53746174 		.string	"Statistic of Input Signal (1kHz and 15 kHz sine components)\n"
 207      69737469 
 207      63206F66 
 207      20496E70 
 207      75742053 
 208 010d 000000   		.align 8
 209              	.LC15:
 210 0110 2D2D2D2D 		.string	"-----------------------------------------------------------\n"
 210      2D2D2D2D 
 210      2D2D2D2D 
 210      2D2D2D2D 
 210      2D2D2D2D 
 211              		.section	.rodata.main.str1.1
 212              	.LC16:
 213 0072 6D65616E 		.string	"mean:          %lf\n"
 213      3A202020 
 213      20202020 
 213      20202025 
 213      6C660A00 
 214              	.LC17:
 215 0086 76617269 		.string	"variance:      %lf\n"
 215      616E6365 
 215      3A202020 
 215      20202025 
 215      6C660A00 
 216              	.LC18:
 217 009a 7374616E 		.string	"standard dev:  %lf\n\n"
 217      64617264 
 217      20646576 
 217      3A202025 
 217      6C660A0A 
 218              	.LC19:
 219 00af 436F6E76 		.string	"Convolution test\n"
 219      6F6C7574 
 219      696F6E20 
 219      74657374 
 219      0A00
 220              	.LC20:
 221 00c1 2D2D2D2D 		.string	"----------------\n"
 221      2D2D2D2D 
 221      2D2D2D2D 
 221      2D2D2D2D 
 221      0A00
 222              		.section	.rodata.main.str1.8
 223 014d 000000   		.align 8
 224              	.LC21:
 225 0150 6461742F 		.string	"dat/convolution/conv_input_signal.dat"
 225      636F6E76 
 225      6F6C7574 
 225      696F6E2F 
 225      636F6E76 
 226 0176 0000     		.align 8
 227              	.LC22:
GAS LISTING /tmp/ccrHHPgQ.s 			page 7


 228 0178 6461742F 		.string	"dat/convolution/conv_impulse_response.dat"
 228      636F6E76 
 228      6F6C7574 
 228      696F6E2F 
 228      636F6E76 
 229 01a2 00000000 		.align 8
 229      0000
 230              	.LC23:
 231 01a8 6461742F 		.string	"dat/convolution/conv_output_signal.dat"
 231      636F6E76 
 231      6F6C7574 
 231      696F6E2F 
 231      636F6E76 
 232 01cf 00       		.align 8
 233              	.LC24:
 234 01d0 6461742F 		.string	"dat/convolution/rsum_input_signal.dat"
 234      636F6E76 
 234      6F6C7574 
 234      696F6E2F 
 234      7273756D 
 235 01f6 0000     		.align 8
 236              	.LC25:
 237 01f8 6461742F 		.string	"dat/convolution/rsum_output_signal.dat"
 237      636F6E76 
 237      6F6C7574 
 237      696F6E2F 
 237      7273756D 
 238 021f 00       		.align 8
 239              	.LC26:
 240 0220 44697363 		.string	"Discrete Fourier transformation test\n"
 240      72657465 
 240      20466F75 
 240      72696572 
 240      20747261 
 241 0246 0000     		.align 8
 242              	.LC27:
 243 0248 2D2D2D2D 		.string	"------------------------------------\n"
 243      2D2D2D2D 
 243      2D2D2D2D 
 243      2D2D2D2D 
 243      2D2D2D2D 
 244              		.section	.rodata.main.str1.1
 245              	.LC28:
 246 00d3 6461742F 		.string	"dat/dft/dft_input_signal.dat"
 246      6466742F 
 246      6466745F 
 246      696E7075 
 246      745F7369 
 247              	.LC29:
 248 00f0 6461742F 		.string	"dat/dft/dft_output_rex.dat"
 248      6466742F 
 248      6466745F 
 248      6F757470 
 248      75745F72 
 249              	.LC30:
 250 010b 6461742F 		.string	"dat/dft/dft_output_imx.dat"
 250      6466742F 
GAS LISTING /tmp/ccrHHPgQ.s 			page 8


 250      6466745F 
 250      6F757470 
 250      75745F69 
 251              		.section	.rodata.main.str1.8
 252 026e 0000     		.align 8
 253              	.LC31:
 254 0270 2F646174 		.string	"/dat/dft/idft_output_signal.dat"
 254      2F646674 
 254      2F696466 
 254      745F6F75 
 254      74707574 
 255              		.section	.rodata.main.str1.1
 256              	.LC32:
 257 0126 6461742F 		.string	"dat/dft/dft_output_mag.dat"
 257      6466742F 
 257      6466745F 
 257      6F757470 
 257      75745F6D 
 258              		.section	.rodata.main.str1.8
 259              		.align 8
 260              	.LC33:
 261 0290 6461742F 		.string	"dat/dft/dft_ecg_input_signal.dat"
 261      6466742F 
 261      6466745F 
 261      6563675F 
 261      696E7075 
 262 02b1 00000000 		.align 8
 262      000000
 263              	.LC34:
 264 02b8 6461742F 		.string	"dat/dft/dft_ecg_output_rex.dat"
 264      6466742F 
 264      6466745F 
 264      6563675F 
 264      6F757470 
 265 02d7 00       		.align 8
 266              	.LC35:
 267 02d8 6461742F 		.string	"dat/dft/dft_ecg_output_imx.dat"
 267      6466742F 
 267      6466745F 
 267      6563675F 
 267      6F757470 
 268 02f7 00       		.align 8
 269              	.LC36:
 270 02f8 2F646174 		.string	"/dat/dft/idft_ecg_output_signal.dat"
 270      2F646674 
 270      2F696466 
 270      745F6563 
 270      675F6F75 
 271              		.section	.text.main,"ax",@progbits
 272              		.globl	main
 274              	main:
 275              	.LFB36:
 276              		.cfi_startproc
 277 0000 4156     		pushq	%r14
 278              		.cfi_def_cfa_offset 16
 279              		.cfi_offset 14, -16
 280 0002 4155     		pushq	%r13
GAS LISTING /tmp/ccrHHPgQ.s 			page 9


 281              		.cfi_def_cfa_offset 24
 282              		.cfi_offset 13, -24
 283 0004 4154     		pushq	%r12
 284              		.cfi_def_cfa_offset 32
 285              		.cfi_offset 12, -32
 286 0006 55       		pushq	%rbp
 287              		.cfi_def_cfa_offset 40
 288              		.cfi_offset 6, -40
 289 0007 53       		pushq	%rbx
 290              		.cfi_def_cfa_offset 48
 291              		.cfi_offset 3, -48
 292 0008 4883EC20 		subq	$32, %rsp
 293              		.cfi_def_cfa_offset 80
 294 000c 488D3500 		leaq	.LC5(%rip), %rsi
 294      000000
 295 0013 BF010000 		movl	$1, %edi
 295      00
 296 0018 B8000000 		movl	$0, %eax
 296      00
 297 001d E8000000 		call	__printf_chk@PLT
 297      00
 298 0022 488D3500 		leaq	.LC6(%rip), %rsi
 298      000000
 299 0029 BF010000 		movl	$1, %edi
 299      00
 300 002e B8000000 		movl	$0, %eax
 300      00
 301 0033 E8000000 		call	__printf_chk@PLT
 301      00
 302 0038 488D3500 		leaq	.LC7(%rip), %rsi
 302      000000
 303 003f BF010000 		movl	$1, %edi
 303      00
 304 0044 B8000000 		movl	$0, %eax
 304      00
 305 0049 E8000000 		call	__printf_chk@PLT
 305      00
 306 004e 488D3500 		leaq	.LC8(%rip), %rsi
 306      000000
 307 0055 BF010000 		movl	$1, %edi
 307      00
 308 005a B8000000 		movl	$0, %eax
 308      00
 309 005f E8000000 		call	__printf_chk@PLT
 309      00
 310 0064 488D3500 		leaq	.LC9(%rip), %rsi
 310      000000
 311 006b BF010000 		movl	$1, %edi
 311      00
 312 0070 B8000000 		movl	$0, %eax
 312      00
 313 0075 E8000000 		call	__printf_chk@PLT
 313      00
 314 007a 488D3500 		leaq	.LC10(%rip), %rsi
 314      000000
 315 0081 BF010000 		movl	$1, %edi
 315      00
GAS LISTING /tmp/ccrHHPgQ.s 			page 10


 316 0086 B8000000 		movl	$0, %eax
 316      00
 317 008b E8000000 		call	__printf_chk@PLT
 317      00
 318 0090 BFE80300 		movl	$1000, %edi
 318      00
 319 0095 E8000000 		call	malloc@PLT
 319      00
 320 009a 4989C4   		movq	%rax, %r12
 321 009d 48C70000 		movq	$0, (%rax)
 321      000000
 322 00a4 48C780E0 		movq	$0, 992(%rax)
 322      03000000 
 322      000000
 323 00af 488D7808 		leaq	8(%rax), %rdi
 324 00b3 4883E7F8 		andq	$-8, %rdi
 325 00b7 4889C1   		movq	%rax, %rcx
 326 00ba 4829F9   		subq	%rdi, %rcx
 327 00bd 81C1E803 		addl	$1000, %ecx
 327      0000
 328 00c3 C1E903   		shrl	$3, %ecx
 329 00c6 89C9     		movl	%ecx, %ecx
 330 00c8 B8000000 		movl	$0, %eax
 330      00
 331 00cd F348AB   		rep stosq
 332 00d0 BAE80300 		movl	$1000, %edx
 332      00
 333 00d5 4C89E6   		movq	%r12, %rsi
 334 00d8 488D3D00 		leaq	.LC11(%rip), %rdi
 334      000000
 335 00df E8000000 		call	readlink@PLT
 335      00
 336 00e4 4863D8   		movslq	%eax, %rbx
 337 00e7 4889D9   		movq	%rbx, %rcx
 338 00ea 4C89E2   		movq	%r12, %rdx
 339 00ed 488D3500 		leaq	.LC12(%rip), %rsi
 339      000000
 340 00f4 BF010000 		movl	$1, %edi
 340      00
 341 00f9 B8000000 		movl	$0, %eax
 341      00
 342 00fe E8000000 		call	__printf_chk@PLT
 342      00
 343 0103 488D7B01 		leaq	1(%rbx), %rdi
 344 0107 E8000000 		call	malloc@PLT
 344      00
 345 010c 4889C5   		movq	%rax, %rbp
 346 010f 4889DA   		movq	%rbx, %rdx
 347 0112 4C89E6   		movq	%r12, %rsi
 348 0115 4889C7   		movq	%rax, %rdi
 349 0118 E8000000 		call	memcpy@PLT
 349      00
 350 011d 488D441D 		leaq	0(%rbp,%rbx), %rax
 350      00
 351 0122 C60000   		movb	$0, (%rax)
 352 0125 BA000000 		movl	$0, %edx
 352      00
GAS LISTING /tmp/ccrHHPgQ.s 			page 11


 353 012a EB15     		jmp	.L18
 354              	.L19:
 355 012c 4883E801 		subq	$1, %rax
 356              	.L21:
 357 0130 80382F   		cmpb	$47, (%rax)
 358 0133 75F7     		jne	.L19
 359 0135 83C201   		addl	$1, %edx
 360 0138 83FA01   		cmpl	$1, %edx
 361 013b 7F04     		jg	.L18
 362 013d 4883E801 		subq	$1, %rax
 363              	.L18:
 364 0141 83FA01   		cmpl	$1, %edx
 365 0144 7EEA     		jle	.L21
 366 0146 C60000   		movb	$0, (%rax)
 367 0149 4C89E7   		movq	%r12, %rdi
 368 014c E8000000 		call	free@PLT
 368      00
 369 0151 4889EF   		movq	%rbp, %rdi
 370 0154 E8000000 		call	strlen@PLT
 370      00
 371 0159 4889C1   		movq	%rax, %rcx
 372 015c 4889EA   		movq	%rbp, %rdx
 373 015f 488D3500 		leaq	.LC13(%rip), %rsi
 373      000000
 374 0166 BF010000 		movl	$1, %edi
 374      00
 375 016b B8000000 		movl	$0, %eax
 375      00
 376 0170 E8000000 		call	__printf_chk@PLT
 376      00
 377 0175 BE400100 		movl	$320, %esi
 377      00
 378 017a 488D3D00 		leaq	InputSignal_f32_1kHz_15kHz(%rip), %rdi
 378      000000
 379 0181 E8000000 		call	dsp_sig_mean@PLT
 379      00
 380 0186 BE400100 		movl	$320, %esi
 380      00
 381 018b F20F1144 		movsd	%xmm0, 8(%rsp)
 381      2408
 382 0191 488D3D00 		leaq	InputSignal_f32_1kHz_15kHz(%rip), %rdi
 382      000000
 383 0198 E8000000 		call	dsp_sig_variance@PLT
 383      00
 384 019d F20F1144 		movsd	%xmm0, 16(%rsp)
 384      2410
 385 01a3 E8000000 		call	dsp_sig_std_dev@PLT
 385      00
 386 01a8 F20F1144 		movsd	%xmm0, 24(%rsp)
 386      2418
 387 01ae 488D3500 		leaq	.LC14(%rip), %rsi
 387      000000
 388 01b5 BF010000 		movl	$1, %edi
 388      00
 389 01ba B8000000 		movl	$0, %eax
 389      00
 390 01bf E8000000 		call	__printf_chk@PLT
GAS LISTING /tmp/ccrHHPgQ.s 			page 12


 390      00
 391 01c4 488D3500 		leaq	.LC15(%rip), %rsi
 391      000000
 392 01cb BF010000 		movl	$1, %edi
 392      00
 393 01d0 B8000000 		movl	$0, %eax
 393      00
 394 01d5 E8000000 		call	__printf_chk@PLT
 394      00
 395 01da F20F1044 		movsd	8(%rsp), %xmm0
 395      2408
 396 01e0 488D3500 		leaq	.LC16(%rip), %rsi
 396      000000
 397 01e7 BF010000 		movl	$1, %edi
 397      00
 398 01ec B8010000 		movl	$1, %eax
 398      00
 399 01f1 E8000000 		call	__printf_chk@PLT
 399      00
 400 01f6 F20F1044 		movsd	16(%rsp), %xmm0
 400      2410
 401 01fc 488D3500 		leaq	.LC17(%rip), %rsi
 401      000000
 402 0203 BF010000 		movl	$1, %edi
 402      00
 403 0208 B8010000 		movl	$1, %eax
 403      00
 404 020d E8000000 		call	__printf_chk@PLT
 404      00
 405 0212 F20F1044 		movsd	24(%rsp), %xmm0
 405      2418
 406 0218 488D3500 		leaq	.LC18(%rip), %rsi
 406      000000
 407 021f BF010000 		movl	$1, %edi
 407      00
 408 0224 B8010000 		movl	$1, %eax
 408      00
 409 0229 E8000000 		call	__printf_chk@PLT
 409      00
 410 022e 488D3500 		leaq	.LC19(%rip), %rsi
 410      000000
 411 0235 BF010000 		movl	$1, %edi
 411      00
 412 023a B8000000 		movl	$0, %eax
 412      00
 413 023f E8000000 		call	__printf_chk@PLT
 413      00
 414 0244 488D3500 		leaq	.LC20(%rip), %rsi
 414      000000
 415 024b BF010000 		movl	$1, %edi
 415      00
 416 0250 B8000000 		movl	$0, %eax
 416      00
 417 0255 E8000000 		call	__printf_chk@PLT
 417      00
 418 025a BE080000 		movl	$8, %esi
 418      00
GAS LISTING /tmp/ccrHHPgQ.s 			page 13


 419 025f BF5D0100 		movl	$349, %edi
 419      00
 420 0264 E8000000 		call	calloc@PLT
 420      00
 421 0269 4889C3   		movq	%rax, %rbx
 422 026c 4889C7   		movq	%rax, %rdi
 423 026f E8000000 		call	check_mem_alloc
 423      00
 424 0274 41B81D00 		movl	$29, %r8d
 424      0000
 425 027a 488D0D00 		leaq	Impulse_response(%rip), %rcx
 425      000000
 426 0281 BA400100 		movl	$320, %edx
 426      00
 427 0286 488D3500 		leaq	InputSignal_f32_1kHz_15kHz(%rip), %rsi
 427      000000
 428 028d 4889DF   		movq	%rbx, %rdi
 429 0290 E8000000 		call	dsp_convolution@PLT
 429      00
 430 0295 B9400100 		movl	$320, %ecx
 430      00
 431 029a 488D1500 		leaq	InputSignal_f32_1kHz_15kHz(%rip), %rdx
 431      000000
 432 02a1 488D3500 		leaq	.LC21(%rip), %rsi
 432      000000
 433 02a8 4889EF   		movq	%rbp, %rdi
 434 02ab E8000000 		call	create_dat_file
 434      00
 435 02b0 B91D0000 		movl	$29, %ecx
 435      00
 436 02b5 488D1500 		leaq	Impulse_response(%rip), %rdx
 436      000000
 437 02bc 488D3500 		leaq	.LC22(%rip), %rsi
 437      000000
 438 02c3 4889EF   		movq	%rbp, %rdi
 439 02c6 E8000000 		call	create_dat_file
 439      00
 440 02cb B95D0100 		movl	$349, %ecx
 440      00
 441 02d0 4889DA   		movq	%rbx, %rdx
 442 02d3 488D3500 		leaq	.LC23(%rip), %rsi
 442      000000
 443 02da 4889EF   		movq	%rbp, %rdi
 444 02dd E8000000 		call	create_dat_file
 444      00
 445 02e2 BE080000 		movl	$8, %esi
 445      00
 446 02e7 BF400100 		movl	$320, %edi
 446      00
 447 02ec E8000000 		call	calloc@PLT
 447      00
 448 02f1 4889C3   		movq	%rax, %rbx
 449 02f4 4889C7   		movq	%rax, %rdi
 450 02f7 E8000000 		call	check_mem_alloc
 450      00
 451 02fc BA400100 		movl	$320, %edx
 451      00
GAS LISTING /tmp/ccrHHPgQ.s 			page 14


 452 0301 488D3500 		leaq	InputSignal_f32_1kHz_15kHz(%rip), %rsi
 452      000000
 453 0308 4889DF   		movq	%rbx, %rdi
 454 030b E8000000 		call	dsp_running_sum@PLT
 454      00
 455 0310 B9400100 		movl	$320, %ecx
 455      00
 456 0315 488D1500 		leaq	InputSignal_f32_1kHz_15kHz(%rip), %rdx
 456      000000
 457 031c 488D3500 		leaq	.LC24(%rip), %rsi
 457      000000
 458 0323 4889EF   		movq	%rbp, %rdi
 459 0326 E8000000 		call	create_dat_file
 459      00
 460 032b B9400100 		movl	$320, %ecx
 460      00
 461 0330 4889DA   		movq	%rbx, %rdx
 462 0333 488D3500 		leaq	.LC25(%rip), %rsi
 462      000000
 463 033a 4889EF   		movq	%rbp, %rdi
 464 033d E8000000 		call	create_dat_file
 464      00
 465 0342 4889DF   		movq	%rbx, %rdi
 466 0345 E8000000 		call	free@PLT
 466      00
 467 034a 488D3500 		leaq	.LC10(%rip), %rsi
 467      000000
 468 0351 BF010000 		movl	$1, %edi
 468      00
 469 0356 B8000000 		movl	$0, %eax
 469      00
 470 035b E8000000 		call	__printf_chk@PLT
 470      00
 471 0360 488D3500 		leaq	.LC26(%rip), %rsi
 471      000000
 472 0367 BF010000 		movl	$1, %edi
 472      00
 473 036c B8000000 		movl	$0, %eax
 473      00
 474 0371 E8000000 		call	__printf_chk@PLT
 474      00
 475 0376 488D3500 		leaq	.LC27(%rip), %rsi
 475      000000
 476 037d BF010000 		movl	$1, %edi
 476      00
 477 0382 B8000000 		movl	$0, %eax
 477      00
 478 0387 E8000000 		call	__printf_chk@PLT
 478      00
 479 038c BE080000 		movl	$8, %esi
 479      00
 480 0391 BFA00000 		movl	$160, %edi
 480      00
 481 0396 E8000000 		call	calloc@PLT
 481      00
 482 039b 4989C4   		movq	%rax, %r12
 483 039e 4889C7   		movq	%rax, %rdi
GAS LISTING /tmp/ccrHHPgQ.s 			page 15


 484 03a1 E8000000 		call	check_mem_alloc
 484      00
 485 03a6 BE080000 		movl	$8, %esi
 485      00
 486 03ab BFA00000 		movl	$160, %edi
 486      00
 487 03b0 E8000000 		call	calloc@PLT
 487      00
 488 03b5 4889C3   		movq	%rax, %rbx
 489 03b8 4889C7   		movq	%rax, %rdi
 490 03bb E8000000 		call	check_mem_alloc
 490      00
 491 03c0 BE080000 		movl	$8, %esi
 491      00
 492 03c5 BF400100 		movl	$320, %edi
 492      00
 493 03ca E8000000 		call	calloc@PLT
 493      00
 494 03cf 4989C5   		movq	%rax, %r13
 495 03d2 4889C7   		movq	%rax, %rdi
 496 03d5 E8000000 		call	check_mem_alloc
 496      00
 497 03da BE080000 		movl	$8, %esi
 497      00
 498 03df BFA00000 		movl	$160, %edi
 498      00
 499 03e4 E8000000 		call	calloc@PLT
 499      00
 500 03e9 4989C6   		movq	%rax, %r14
 501 03ec 4889C7   		movq	%rax, %rdi
 502 03ef E8000000 		call	check_mem_alloc
 502      00
 503 03f4 B9400100 		movl	$320, %ecx
 503      00
 504 03f9 4889DA   		movq	%rbx, %rdx
 505 03fc 4C89E6   		movq	%r12, %rsi
 506 03ff 488D3D00 		leaq	InputSignal_f32_1kHz_15kHz(%rip), %rdi
 506      000000
 507 0406 E8000000 		call	dsp_dft@PLT
 507      00
 508 040b B9A00000 		movl	$160, %ecx
 508      00
 509 0410 4889DA   		movq	%rbx, %rdx
 510 0413 4C89E6   		movq	%r12, %rsi
 511 0416 4C89F7   		movq	%r14, %rdi
 512 0419 E8000000 		call	dsp_dft_magnitude@PLT
 512      00
 513 041e B9400100 		movl	$320, %ecx
 513      00
 514 0423 488D1500 		leaq	InputSignal_f32_1kHz_15kHz(%rip), %rdx
 514      000000
 515 042a 488D3500 		leaq	.LC28(%rip), %rsi
 515      000000
 516 0431 4889EF   		movq	%rbp, %rdi
 517 0434 E8000000 		call	create_dat_file
 517      00
 518 0439 B9A00000 		movl	$160, %ecx
GAS LISTING /tmp/ccrHHPgQ.s 			page 16


 518      00
 519 043e 4C89E2   		movq	%r12, %rdx
 520 0441 488D3500 		leaq	.LC29(%rip), %rsi
 520      000000
 521 0448 4889EF   		movq	%rbp, %rdi
 522 044b E8000000 		call	create_dat_file
 522      00
 523 0450 B9A00000 		movl	$160, %ecx
 523      00
 524 0455 4889DA   		movq	%rbx, %rdx
 525 0458 488D3500 		leaq	.LC30(%rip), %rsi
 525      000000
 526 045f 4889EF   		movq	%rbp, %rdi
 527 0462 E8000000 		call	create_dat_file
 527      00
 528 0467 B9400100 		movl	$320, %ecx
 528      00
 529 046c 4889DA   		movq	%rbx, %rdx
 530 046f 4C89E6   		movq	%r12, %rsi
 531 0472 4C89EF   		movq	%r13, %rdi
 532 0475 E8000000 		call	dsp_idft@PLT
 532      00
 533 047a B9400100 		movl	$320, %ecx
 533      00
 534 047f 4C89EA   		movq	%r13, %rdx
 535 0482 488D3500 		leaq	.LC31(%rip), %rsi
 535      000000
 536 0489 4889EF   		movq	%rbp, %rdi
 537 048c E8000000 		call	create_dat_file
 537      00
 538 0491 B9A00000 		movl	$160, %ecx
 538      00
 539 0496 4C89F2   		movq	%r14, %rdx
 540 0499 488D3500 		leaq	.LC32(%rip), %rsi
 540      000000
 541 04a0 4889EF   		movq	%rbp, %rdi
 542 04a3 E8000000 		call	create_dat_file
 542      00
 543 04a8 488D3500 		leaq	.LC10(%rip), %rsi
 543      000000
 544 04af BF010000 		movl	$1, %edi
 544      00
 545 04b4 B8000000 		movl	$0, %eax
 545      00
 546 04b9 E8000000 		call	__printf_chk@PLT
 546      00
 547 04be 4C89E7   		movq	%r12, %rdi
 548 04c1 E8000000 		call	free@PLT
 548      00
 549 04c6 4889DF   		movq	%rbx, %rdi
 550 04c9 E8000000 		call	free@PLT
 550      00
 551 04ce 4C89F7   		movq	%r14, %rdi
 552 04d1 E8000000 		call	free@PLT
 552      00
 553 04d6 4C89EF   		movq	%r13, %rdi
 554 04d9 E8000000 		call	free@PLT
GAS LISTING /tmp/ccrHHPgQ.s 			page 17


 554      00
 555 04de BE080000 		movl	$8, %esi
 555      00
 556 04e3 BF400100 		movl	$320, %edi
 556      00
 557 04e8 E8000000 		call	calloc@PLT
 557      00
 558 04ed 4989C4   		movq	%rax, %r12
 559 04f0 4889C7   		movq	%rax, %rdi
 560 04f3 E8000000 		call	check_mem_alloc
 560      00
 561 04f8 BE080000 		movl	$8, %esi
 561      00
 562 04fd BF400100 		movl	$320, %edi
 562      00
 563 0502 E8000000 		call	calloc@PLT
 563      00
 564 0507 4889C3   		movq	%rax, %rbx
 565 050a 4889C7   		movq	%rax, %rdi
 566 050d E8000000 		call	check_mem_alloc
 566      00
 567 0512 BE080000 		movl	$8, %esi
 567      00
 568 0517 BF800200 		movl	$640, %edi
 568      00
 569 051c E8000000 		call	calloc@PLT
 569      00
 570 0521 4989C5   		movq	%rax, %r13
 571 0524 4889C7   		movq	%rax, %rdi
 572 0527 E8000000 		call	check_mem_alloc
 572      00
 573 052c B9800200 		movl	$640, %ecx
 573      00
 574 0531 4889DA   		movq	%rbx, %rdx
 575 0534 4C89E6   		movq	%r12, %rsi
 576 0537 488D3D00 		leaq	ECG_signal(%rip), %rdi
 576      000000
 577 053e E8000000 		call	dsp_dft@PLT
 577      00
 578 0543 B9800200 		movl	$640, %ecx
 578      00
 579 0548 488D1500 		leaq	ECG_signal(%rip), %rdx
 579      000000
 580 054f 488D3500 		leaq	.LC33(%rip), %rsi
 580      000000
 581 0556 4889EF   		movq	%rbp, %rdi
 582 0559 E8000000 		call	create_dat_file
 582      00
 583 055e B9400100 		movl	$320, %ecx
 583      00
 584 0563 4C89E2   		movq	%r12, %rdx
 585 0566 488D3500 		leaq	.LC34(%rip), %rsi
 585      000000
 586 056d 4889EF   		movq	%rbp, %rdi
 587 0570 E8000000 		call	create_dat_file
 587      00
 588 0575 B9400100 		movl	$320, %ecx
GAS LISTING /tmp/ccrHHPgQ.s 			page 18


 588      00
 589 057a 4889DA   		movq	%rbx, %rdx
 590 057d 488D3500 		leaq	.LC35(%rip), %rsi
 590      000000
 591 0584 4889EF   		movq	%rbp, %rdi
 592 0587 E8000000 		call	create_dat_file
 592      00
 593 058c B9800200 		movl	$640, %ecx
 593      00
 594 0591 4889DA   		movq	%rbx, %rdx
 595 0594 4C89E6   		movq	%r12, %rsi
 596 0597 4C89EF   		movq	%r13, %rdi
 597 059a E8000000 		call	dsp_idft@PLT
 597      00
 598 059f B9800200 		movl	$640, %ecx
 598      00
 599 05a4 4C89EA   		movq	%r13, %rdx
 600 05a7 488D3500 		leaq	.LC36(%rip), %rsi
 600      000000
 601 05ae 4889EF   		movq	%rbp, %rdi
 602 05b1 E8000000 		call	create_dat_file
 602      00
 603 05b6 488D3500 		leaq	.LC10(%rip), %rsi
 603      000000
 604 05bd BF010000 		movl	$1, %edi
 604      00
 605 05c2 B8000000 		movl	$0, %eax
 605      00
 606 05c7 E8000000 		call	__printf_chk@PLT
 606      00
 607 05cc 4C89E7   		movq	%r12, %rdi
 608 05cf E8000000 		call	free@PLT
 608      00
 609 05d4 4889DF   		movq	%rbx, %rdi
 610 05d7 E8000000 		call	free@PLT
 610      00
 611 05dc 4C89EF   		movq	%r13, %rdi
 612 05df E8000000 		call	free@PLT
 612      00
 613 05e4 B8000000 		movl	$0, %eax
 613      00
 614 05e9 4883C420 		addq	$32, %rsp
 615              		.cfi_def_cfa_offset 48
 616 05ed 5B       		popq	%rbx
 617              		.cfi_def_cfa_offset 40
 618 05ee 5D       		popq	%rbp
 619              		.cfi_def_cfa_offset 32
 620 05ef 415C     		popq	%r12
 621              		.cfi_def_cfa_offset 24
 622 05f1 415D     		popq	%r13
 623              		.cfi_def_cfa_offset 16
 624 05f3 415E     		popq	%r14
 625              		.cfi_def_cfa_offset 8
 626 05f5 C3       		ret
 627              		.cfi_endproc
 628              	.LFE36:
 630              		.ident	"GCC: (Ubuntu 7.5.0-3ubuntu1~18.04) 7.5.0"
GAS LISTING /tmp/ccrHHPgQ.s 			page 19


 631              		.section	.note.GNU-stack,"",@progbits
GAS LISTING /tmp/ccrHHPgQ.s 			page 20


DEFINED SYMBOLS
                            *ABS*:0000000000000000 main.c
     /tmp/ccrHHPgQ.s:8      .text.check_mem_alloc:0000000000000000 check_mem_alloc
     /tmp/ccrHHPgQ.s:30     .text.prepare_path:0000000000000000 prepare_path
     /tmp/ccrHHPgQ.s:95     .text.create_dat_file:0000000000000000 create_dat_file
     /tmp/ccrHHPgQ.s:274    .text.main:0000000000000000 main
     /tmp/ccrHHPgQ.s:4      .rodata.check_mem_alloc.str1.1:0000000000000000 .LC0
     /tmp/ccrHHPgQ.s:81     .rodata.create_dat_file.str1.1:0000000000000000 .LC1
     /tmp/ccrHHPgQ.s:85     .rodata.create_dat_file.str1.8:0000000000000000 .LC2
     /tmp/ccrHHPgQ.s:88     .rodata.create_dat_file.str1.1:0000000000000003 .LC3
     /tmp/ccrHHPgQ.s:90     .rodata.create_dat_file.str1.1:0000000000000007 .LC4
     /tmp/ccrHHPgQ.s:181    .rodata.main.str1.1:0000000000000000 .LC5
     /tmp/ccrHHPgQ.s:183    .rodata.main.str1.1:0000000000000015 .LC6
     /tmp/ccrHHPgQ.s:185    .rodata.main.str1.1:000000000000002a .LC7
     /tmp/ccrHHPgQ.s:189    .rodata.main.str1.8:0000000000000000 .LC8
     /tmp/ccrHHPgQ.s:192    .rodata.main.str1.8:0000000000000040 .LC9
     /tmp/ccrHHPgQ.s:195    .rodata.main.str1.1:0000000000000044 .LC10
     /tmp/ccrHHPgQ.s:197    .rodata.main.str1.1:0000000000000046 .LC11
     /tmp/ccrHHPgQ.s:199    .rodata.main.str1.1:0000000000000055 .LC12
     /tmp/ccrHHPgQ.s:203    .rodata.main.str1.8:00000000000000a8 .LC13
     /tmp/ccrHHPgQ.s:206    .rodata.main.str1.8:00000000000000d0 .LC14
     /tmp/ccrHHPgQ.s:209    .rodata.main.str1.8:0000000000000110 .LC15
     /tmp/ccrHHPgQ.s:212    .rodata.main.str1.1:0000000000000072 .LC16
     /tmp/ccrHHPgQ.s:214    .rodata.main.str1.1:0000000000000086 .LC17
     /tmp/ccrHHPgQ.s:216    .rodata.main.str1.1:000000000000009a .LC18
     /tmp/ccrHHPgQ.s:218    .rodata.main.str1.1:00000000000000af .LC19
     /tmp/ccrHHPgQ.s:220    .rodata.main.str1.1:00000000000000c1 .LC20
     /tmp/ccrHHPgQ.s:224    .rodata.main.str1.8:0000000000000150 .LC21
     /tmp/ccrHHPgQ.s:227    .rodata.main.str1.8:0000000000000178 .LC22
     /tmp/ccrHHPgQ.s:230    .rodata.main.str1.8:00000000000001a8 .LC23
     /tmp/ccrHHPgQ.s:233    .rodata.main.str1.8:00000000000001d0 .LC24
     /tmp/ccrHHPgQ.s:236    .rodata.main.str1.8:00000000000001f8 .LC25
     /tmp/ccrHHPgQ.s:239    .rodata.main.str1.8:0000000000000220 .LC26
     /tmp/ccrHHPgQ.s:242    .rodata.main.str1.8:0000000000000248 .LC27
     /tmp/ccrHHPgQ.s:245    .rodata.main.str1.1:00000000000000d3 .LC28
     /tmp/ccrHHPgQ.s:247    .rodata.main.str1.1:00000000000000f0 .LC29
     /tmp/ccrHHPgQ.s:249    .rodata.main.str1.1:000000000000010b .LC30
     /tmp/ccrHHPgQ.s:253    .rodata.main.str1.8:0000000000000270 .LC31
     /tmp/ccrHHPgQ.s:256    .rodata.main.str1.1:0000000000000126 .LC32
     /tmp/ccrHHPgQ.s:260    .rodata.main.str1.8:0000000000000290 .LC33
     /tmp/ccrHHPgQ.s:263    .rodata.main.str1.8:00000000000002b8 .LC34
     /tmp/ccrHHPgQ.s:266    .rodata.main.str1.8:00000000000002d8 .LC35
     /tmp/ccrHHPgQ.s:269    .rodata.main.str1.8:00000000000002f8 .LC36

UNDEFINED SYMBOLS
stderr
_GLOBAL_OFFSET_TABLE_
__fprintf_chk
exit
strlen
malloc
strcpy
fopen
stdout
fclose
free
__printf_chk
GAS LISTING /tmp/ccrHHPgQ.s 			page 21


readlink
memcpy
InputSignal_f32_1kHz_15kHz
dsp_sig_mean
dsp_sig_variance
dsp_sig_std_dev
calloc
Impulse_response
dsp_convolution
dsp_running_sum
dsp_dft
dsp_dft_magnitude
dsp_idft
ECG_signal
