GAS LISTING /tmp/ccbsBSXt.s 			page 1


   1              		.file	"main.c"
   2              		.text
   3              		.section	.rodata.create_dat_file.str1.1,"aMS",@progbits,1
   4              	.LC0:
   5 0000 772B00   		.string	"w+"
   6              	.LC1:
   7 0003 0A256600 		.string	"\n%f"
   8              		.section	.text.create_dat_file,"ax",@progbits
   9              		.globl	create_dat_file
  11              	create_dat_file:
  12              	.LFB37:
  13              		.cfi_startproc
  14 0000 4155     		pushq	%r13
  15              		.cfi_def_cfa_offset 16
  16              		.cfi_offset 13, -16
  17 0002 4154     		pushq	%r12
  18              		.cfi_def_cfa_offset 24
  19              		.cfi_offset 12, -24
  20 0004 55       		pushq	%rbp
  21              		.cfi_def_cfa_offset 32
  22              		.cfi_offset 6, -32
  23 0005 53       		pushq	%rbx
  24              		.cfi_def_cfa_offset 40
  25              		.cfi_offset 3, -40
  26 0006 4883EC08 		subq	$8, %rsp
  27              		.cfi_def_cfa_offset 48
  28 000a 4989F5   		movq	%rsi, %r13
  29 000d 4889D5   		movq	%rdx, %rbp
  30 0010 488D3500 		leaq	.LC0(%rip), %rsi
  30      000000
  31 0017 E8000000 		call	fopen@PLT
  31      00
  32 001c 4885C0   		testq	%rax, %rax
  33 001f 7448     		je	.L5
  34 0021 4989C4   		movq	%rax, %r12
  35 0024 BB000000 		movl	$0, %ebx
  35      00
  36 0029 EB24     		jmp	.L3
  37              	.L4:
  38 002b F2410F10 		movsd	0(%r13,%rbx,8), %xmm0
  38      44DD00
  39 0032 488D1500 		leaq	.LC1(%rip), %rdx
  39      000000
  40 0039 BE010000 		movl	$1, %esi
  40      00
  41 003e 4C89E7   		movq	%r12, %rdi
  42 0041 B8010000 		movl	$1, %eax
  42      00
  43 0046 E8000000 		call	__fprintf_chk@PLT
  43      00
  44 004b 4883C301 		addq	$1, %rbx
  45              	.L3:
  46 004f 4839EB   		cmpq	%rbp, %rbx
  47 0052 72D7     		jb	.L4
  48 0054 4C89E7   		movq	%r12, %rdi
  49 0057 E8000000 		call	fclose@PLT
  49      00
GAS LISTING /tmp/ccbsBSXt.s 			page 2


  50 005c 89E8     		movl	%ebp, %eax
  51              	.L1:
  52 005e 4883C408 		addq	$8, %rsp
  53              		.cfi_remember_state
  54              		.cfi_def_cfa_offset 40
  55 0062 5B       		popq	%rbx
  56              		.cfi_def_cfa_offset 32
  57 0063 5D       		popq	%rbp
  58              		.cfi_def_cfa_offset 24
  59 0064 415C     		popq	%r12
  60              		.cfi_def_cfa_offset 16
  61 0066 415D     		popq	%r13
  62              		.cfi_def_cfa_offset 8
  63 0068 C3       		ret
  64              	.L5:
  65              		.cfi_restore_state
  66 0069 B8000000 		movl	$0, %eax
  66      00
  67 006e EBEE     		jmp	.L1
  68              		.cfi_endproc
  69              	.LFE37:
  71              		.section	.rodata.main.str1.1,"aMS",@progbits,1
  72              	.LC2:
  73 0000 2F70726F 		.string	"/proc/self/exe"
  73      632F7365 
  73      6C662F65 
  73      786500
  74              		.section	.rodata.main.str1.8,"aMS",@progbits,1
  75              		.align 8
  76              	.LC3:
  77 0000 46756C6C 		.string	"Full path of executable:\t%s (len: %d)\n"
  77      20706174 
  77      68206F66 
  77      20657865 
  77      63757461 
  78 0027 00       		.align 8
  79              	.LC4:
  80 0028 4162736F 		.string	"Absolute path of executable is not defined\n"
  80      6C757465 
  80      20706174 
  80      68206F66 
  80      20657865 
  81 0054 00000000 		.align 8
  82              	.LC5:
  83 0058 4162736F 		.string	"Absolute path of executable:\t%s (len: %d)\n"
  83      6C757465 
  83      20706174 
  83      68206F66 
  83      20657865 
  84              		.section	.rodata.main.str1.1
  85              	.LC6:
  86 000f 54657374 		.string	"Testing DSP library\n"
  86      696E6720 
  86      44535020 
  86      6C696272 
  86      6172790A 
  87              	.LC7:
GAS LISTING /tmp/ccbsBSXt.s 			page 3


  88 0024 3D3D3D3D 		.string	"===================\n"
  88      3D3D3D3D 
  88      3D3D3D3D 
  88      3D3D3D3D 
  88      3D3D3D0A 
  89              	.LC8:
  90 0039 44657665 		.string	"Developer: Istvan Milak\n\n"
  90      6C6F7065 
  90      723A2049 
  90      73747661 
  90      6E204D69 
  91              		.section	.rodata.main.str1.8
  92 0083 00000000 		.align 8
  92      00
  93              	.LC9:
  94 0088 54686520 		.string	"The software generate the calculation result *.dat files\n"
  94      736F6674 
  94      77617265 
  94      2067656E 
  94      65726174 
  95 00c2 00000000 		.align 8
  95      0000
  96              	.LC10:
  97 00c8 596F7520 		.string	"You can find the correspondig dat files in test/dat/* dirs with html output and gnuplot s
  97      63616E20 
  97      66696E64 
  97      20746865 
  97      20636F72 
  98              		.section	.rodata.main.str1.1
  99              	.LC11:
 100 0053 0A00     		.string	"\n"
 101              		.section	.rodata.main.str1.8
 102 0129 00000000 		.align 8
 102      000000
 103              	.LC12:
 104 0130 53746174 		.string	"Statistic of Input Signal (1kHz and 15 kHz sine components)\n"
 104      69737469 
 104      63206F66 
 104      20496E70 
 104      75742053 
 105 016d 000000   		.align 8
 106              	.LC13:
 107 0170 2D2D2D2D 		.string	"-----------------------------------------------------------\n"
 107      2D2D2D2D 
 107      2D2D2D2D 
 107      2D2D2D2D 
 107      2D2D2D2D 
 108              		.section	.rodata.main.str1.1
 109              	.LC14:
 110 0055 6D65616E 		.string	"mean:          %lf\n"
 110      3A202020 
 110      20202020 
 110      20202025 
 110      6C660A00 
 111              	.LC15:
 112 0069 76617269 		.string	"variance:      %lf\n"
 112      616E6365 
GAS LISTING /tmp/ccbsBSXt.s 			page 4


 112      3A202020 
 112      20202025 
 112      6C660A00 
 113              	.LC16:
 114 007d 7374616E 		.string	"standard dev:  %lf\n\n"
 114      64617264 
 114      20646576 
 114      3A202025 
 114      6C660A0A 
 115              	.LC17:
 116 0092 436F6E76 		.string	"Convolution test\n"
 116      6F6C7574 
 116      696F6E20 
 116      74657374 
 116      0A00
 117              	.LC18:
 118 00a4 2D2D2D2D 		.string	"----------------\n"
 118      2D2D2D2D 
 118      2D2D2D2D 
 118      2D2D2D2D 
 118      0A00
 119              		.section	.rodata.main.str1.8
 120 01ad 000000   		.align 8
 121              	.LC19:
 122 01b0 2E2E2F64 		.string	"../dat/convolution/conv_input_signal.dat"
 122      61742F63 
 122      6F6E766F 
 122      6C757469 
 122      6F6E2F63 
 123 01d9 00000000 		.align 8
 123      000000
 124              	.LC20:
 125 01e0 416E2065 		.string	"An error occured in ../dat/convolution/conv_input_signal.dat file creation\n"
 125      72726F72 
 125      206F6363 
 125      75726564 
 125      20696E20 
 126 022c 00000000 		.align 8
 127              	.LC21:
 128 0230 2E2E2F64 		.string	"../dat/convolution/conv_input_signal.dat created\n"
 128      61742F63 
 128      6F6E766F 
 128      6C757469 
 128      6F6E2F63 
 129 0262 00000000 		.align 8
 129      0000
 130              	.LC22:
 131 0268 2E2E2F64 		.string	"../dat/convolution/conv_impulse_response.dat"
 131      61742F63 
 131      6F6E766F 
 131      6C757469 
 131      6F6E2F63 
 132 0295 000000   		.align 8
 133              	.LC23:
 134 0298 416E2065 		.string	"An error occured in ../dat/convolution/conv_impulse_response.dat file creation\n"
 134      72726F72 
 134      206F6363 
GAS LISTING /tmp/ccbsBSXt.s 			page 5


 134      75726564 
 134      20696E20 
 135              		.align 8
 136              	.LC24:
 137 02e8 2E2E2F64 		.string	"../dat/convolution/conv_impulse_response.dat created\n"
 137      61742F63 
 137      6F6E766F 
 137      6C757469 
 137      6F6E2F63 
 138 031e 0000     		.align 8
 139              	.LC25:
 140 0320 2E2E2F64 		.string	"../dat/convolution/conv_output_signal.dat"
 140      61742F63 
 140      6F6E766F 
 140      6C757469 
 140      6F6E2F63 
 141 034a 00000000 		.align 8
 141      0000
 142              	.LC26:
 143 0350 416E2065 		.string	"An error occured in ../dat/convolution/conv_output_signal.dat file creation\n"
 143      72726F72 
 143      206F6363 
 143      75726564 
 143      20696E20 
 144 039d 000000   		.align 8
 145              	.LC27:
 146 03a0 2E2E2F64 		.string	"../dat/convolution/conv_output_signal.dat created\n"
 146      61742F63 
 146      6F6E766F 
 146      6C757469 
 146      6F6E2F63 
 147 03d3 00000000 		.align 8
 147      00
 148              	.LC28:
 149 03d8 2E2E2F64 		.string	"../dat/convolution/rsum_input_signal.dat"
 149      61742F63 
 149      6F6E766F 
 149      6C757469 
 149      6F6E2F72 
 150 0401 00000000 		.align 8
 150      000000
 151              	.LC29:
 152 0408 416E2065 		.string	"An error occured in ../dat/convolution/rsum_input_signal.dat file creation\n"
 152      72726F72 
 152      206F6363 
 152      75726564 
 152      20696E20 
 153 0454 00000000 		.align 8
 154              	.LC30:
 155 0458 2E2E2F64 		.string	"../dat/convolution/rsum_input_signal.dat created\n"
 155      61742F63 
 155      6F6E766F 
 155      6C757469 
 155      6F6E2F72 
 156 048a 00000000 		.align 8
 156      0000
 157              	.LC31:
GAS LISTING /tmp/ccbsBSXt.s 			page 6


 158 0490 2E2E2F64 		.string	"../dat/convolution/rsum_output_signal.dat"
 158      61742F63 
 158      6F6E766F 
 158      6C757469 
 158      6F6E2F72 
 159 04ba 00000000 		.align 8
 159      0000
 160              	.LC32:
 161 04c0 416E2065 		.string	"An error occured in ../dat/convolution/rsum_output_signal.dat file creation\n"
 161      72726F72 
 161      206F6363 
 161      75726564 
 161      20696E20 
 162 050d 000000   		.align 8
 163              	.LC33:
 164 0510 2E2E2F64 		.string	"../dat/convolution/rsum_output_signal.dat created\n"
 164      61742F63 
 164      6F6E766F 
 164      6C757469 
 164      6F6E2F72 
 165 0543 00000000 		.align 8
 165      00
 166              	.LC34:
 167 0548 44697363 		.string	"Discrete Fourier transformation test\n"
 167      72657465 
 167      20466F75 
 167      72696572 
 167      20747261 
 168 056e 0000     		.align 8
 169              	.LC35:
 170 0570 2D2D2D2D 		.string	"------------------------------------\n"
 170      2D2D2D2D 
 170      2D2D2D2D 
 170      2D2D2D2D 
 170      2D2D2D2D 
 171 0596 0000     		.align 8
 172              	.LC36:
 173 0598 2E2E2F64 		.string	"../dat/dft/dft_input_signal.dat"
 173      61742F64 
 173      66742F64 
 173      66745F69 
 173      6E707574 
 174              		.align 8
 175              	.LC37:
 176 05b8 416E2065 		.string	"An error occured in ../dat/dft/dft_input_signal.dat file creation\n"
 176      72726F72 
 176      206F6363 
 176      75726564 
 176      20696E20 
 177 05fb 00000000 		.align 8
 177      00
 178              	.LC38:
 179 0600 2E2E2F64 		.string	"../dat/dft/dft_input_signal.dat created\n"
 179      61742F64 
 179      66742F64 
 179      66745F69 
 179      6E707574 
GAS LISTING /tmp/ccbsBSXt.s 			page 7


 180              		.section	.rodata.main.str1.1
 181              	.LC39:
 182 00b6 2E2E2F64 		.string	"../dat/dft/dft_output_rex.dat"
 182      61742F64 
 182      66742F64 
 182      66745F6F 
 182      75747075 
 183              		.section	.rodata.main.str1.8
 184 0629 00000000 		.align 8
 184      000000
 185              	.LC40:
 186 0630 416E2065 		.string	"An error occured in ../dat/dft/dft_output_rex.dat file creation\n"
 186      72726F72 
 186      206F6363 
 186      75726564 
 186      20696E20 
 187 0671 00000000 		.align 8
 187      000000
 188              	.LC41:
 189 0678 2E2E2F64 		.string	"../dat/dft/dft_output_rex.dat created\n"
 189      61742F64 
 189      66742F64 
 189      66745F6F 
 189      75747075 
 190              		.section	.rodata.main.str1.1
 191              	.LC42:
 192 00d4 2E2E2F64 		.string	"../dat/dft/dft_output_imx.dat"
 192      61742F64 
 192      66742F64 
 192      66745F6F 
 192      75747075 
 193              		.section	.rodata.main.str1.8
 194 069f 00       		.align 8
 195              	.LC43:
 196 06a0 416E2065 		.string	"An error occured in ../dat/dft/dft_output_imx.dat file creation\n"
 196      72726F72 
 196      206F6363 
 196      75726564 
 196      20696E20 
 197 06e1 00000000 		.align 8
 197      000000
 198              	.LC44:
 199 06e8 2E2E2F64 		.string	"../dat/dft/dft_output_imx.dat created\n"
 199      61742F64 
 199      66742F64 
 199      66745F6F 
 199      75747075 
 200 070f 00       		.align 8
 201              	.LC45:
 202 0710 2E2E2F64 		.string	"../dat/dft/idft_output_signal.dat"
 202      61742F64 
 202      66742F69 
 202      6466745F 
 202      6F757470 
 203 0732 00000000 		.align 8
 203      0000
 204              	.LC46:
GAS LISTING /tmp/ccbsBSXt.s 			page 8


 205 0738 416E2065 		.string	"An error occured in ../dat/dft/idft_output_signal.dat file creation\n"
 205      72726F72 
 205      206F6363 
 205      75726564 
 205      20696E20 
 206 077d 000000   		.align 8
 207              	.LC47:
 208 0780 2E2E2F64 		.string	"../dat/dft/idft_output_signal.dat created\n"
 208      61742F64 
 208      66742F69 
 208      6466745F 
 208      6F757470 
 209              		.section	.text.main,"ax",@progbits
 210              		.globl	main
 212              	main:
 213              	.LFB36:
 214              		.cfi_startproc
 215 0000 4154     		pushq	%r12
 216              		.cfi_def_cfa_offset 16
 217              		.cfi_offset 12, -16
 218 0002 55       		pushq	%rbp
 219              		.cfi_def_cfa_offset 24
 220              		.cfi_offset 6, -24
 221 0003 53       		pushq	%rbx
 222              		.cfi_def_cfa_offset 32
 223              		.cfi_offset 3, -32
 224 0004 4881EC10 		subq	$10512, %rsp
 224      290000
 225              		.cfi_def_cfa_offset 10544
 226 000b 64488B04 		movq	%fs:40, %rax
 226      25280000 
 226      00
 227 0014 48898424 		movq	%rax, 10504(%rsp)
 227      08290000 
 228 001c 31C0     		xorl	%eax, %eax
 229 001e BFE80300 		movl	$1000, %edi
 229      00
 230 0023 E8000000 		call	malloc@PLT
 230      00
 231 0028 4889C3   		movq	%rax, %rbx
 232 002b 48C70000 		movq	$0, (%rax)
 232      000000
 233 0032 48C780E0 		movq	$0, 992(%rax)
 233      03000000 
 233      000000
 234 003d 488D7808 		leaq	8(%rax), %rdi
 235 0041 4883E7F8 		andq	$-8, %rdi
 236 0045 4889C1   		movq	%rax, %rcx
 237 0048 4829F9   		subq	%rdi, %rcx
 238 004b 81C1E803 		addl	$1000, %ecx
 238      0000
 239 0051 C1E903   		shrl	$3, %ecx
 240 0054 89C9     		movl	%ecx, %ecx
 241 0056 B8000000 		movl	$0, %eax
 241      00
 242 005b F348AB   		rep stosq
 243 005e BAE80300 		movl	$1000, %edx
GAS LISTING /tmp/ccbsBSXt.s 			page 9


 243      00
 244 0063 4889DE   		movq	%rbx, %rsi
 245 0066 488D3D00 		leaq	.LC2(%rip), %rdi
 245      000000
 246 006d E8000000 		call	readlink@PLT
 246      00
 247 0072 4863E8   		movslq	%eax, %rbp
 248 0075 4889E9   		movq	%rbp, %rcx
 249 0078 4889DA   		movq	%rbx, %rdx
 250 007b 488D3500 		leaq	.LC3(%rip), %rsi
 250      000000
 251 0082 BF010000 		movl	$1, %edi
 251      00
 252 0087 B8000000 		movl	$0, %eax
 252      00
 253 008c E8000000 		call	__printf_chk@PLT
 253      00
 254 0091 4883C501 		addq	$1, %rbp
 255 0095 4889EF   		movq	%rbp, %rdi
 256 0098 E8000000 		call	malloc@PLT
 256      00
 257 009d 4989C4   		movq	%rax, %r12
 258 00a0 4889EA   		movq	%rbp, %rdx
 259 00a3 BE000000 		movl	$0, %esi
 259      00
 260 00a8 4889C7   		movq	%rax, %rdi
 261 00ab E8000000 		call	memset@PLT
 261      00
 262 00b0 4C89E6   		movq	%r12, %rsi
 263 00b3 4889DF   		movq	%rbx, %rdi
 264 00b6 E8000000 		call	realpath@PLT
 264      00
 265 00bb 4889C5   		movq	%rax, %rbp
 266 00be 4889DF   		movq	%rbx, %rdi
 267 00c1 E8000000 		call	free@PLT
 267      00
 268 00c6 4885ED   		testq	%rbp, %rbp
 269 00c9 0F843804 		je	.L21
 269      0000
 270 00cf 4C89E7   		movq	%r12, %rdi
 271 00d2 E8000000 		call	strlen@PLT
 271      00
 272 00d7 4889C1   		movq	%rax, %rcx
 273 00da 4C89E2   		movq	%r12, %rdx
 274 00dd 488D3500 		leaq	.LC5(%rip), %rsi
 274      000000
 275 00e4 BF010000 		movl	$1, %edi
 275      00
 276 00e9 B8000000 		movl	$0, %eax
 276      00
 277 00ee E8000000 		call	__printf_chk@PLT
 277      00
 278 00f3 488D3500 		leaq	.LC6(%rip), %rsi
 278      000000
 279 00fa BF010000 		movl	$1, %edi
 279      00
 280 00ff B8000000 		movl	$0, %eax
GAS LISTING /tmp/ccbsBSXt.s 			page 10


 280      00
 281 0104 E8000000 		call	__printf_chk@PLT
 281      00
 282 0109 488D3500 		leaq	.LC7(%rip), %rsi
 282      000000
 283 0110 BF010000 		movl	$1, %edi
 283      00
 284 0115 B8000000 		movl	$0, %eax
 284      00
 285 011a E8000000 		call	__printf_chk@PLT
 285      00
 286 011f 488D3500 		leaq	.LC8(%rip), %rsi
 286      000000
 287 0126 BF010000 		movl	$1, %edi
 287      00
 288 012b B8000000 		movl	$0, %eax
 288      00
 289 0130 E8000000 		call	__printf_chk@PLT
 289      00
 290 0135 488D3500 		leaq	.LC9(%rip), %rsi
 290      000000
 291 013c BF010000 		movl	$1, %edi
 291      00
 292 0141 B8000000 		movl	$0, %eax
 292      00
 293 0146 E8000000 		call	__printf_chk@PLT
 293      00
 294 014b 488D3500 		leaq	.LC10(%rip), %rsi
 294      000000
 295 0152 BF010000 		movl	$1, %edi
 295      00
 296 0157 B8000000 		movl	$0, %eax
 296      00
 297 015c E8000000 		call	__printf_chk@PLT
 297      00
 298 0161 488D3500 		leaq	.LC11(%rip), %rsi
 298      000000
 299 0168 BF010000 		movl	$1, %edi
 299      00
 300 016d B8000000 		movl	$0, %eax
 300      00
 301 0172 E8000000 		call	__printf_chk@PLT
 301      00
 302 0177 BE400100 		movl	$320, %esi
 302      00
 303 017c 488D3D00 		leaq	InputSignal_f32_1kHz_15kHz(%rip), %rdi
 303      000000
 304 0183 E8000000 		call	dsp_sig_mean@PLT
 304      00
 305 0188 BE400100 		movl	$320, %esi
 305      00
 306 018d F20F1144 		movsd	%xmm0, 8(%rsp)
 306      2408
 307 0193 488D3D00 		leaq	InputSignal_f32_1kHz_15kHz(%rip), %rdi
 307      000000
 308 019a E8000000 		call	dsp_sig_variance@PLT
 308      00
GAS LISTING /tmp/ccbsBSXt.s 			page 11


 309 019f F20F1144 		movsd	%xmm0, 16(%rsp)
 309      2410
 310 01a5 E8000000 		call	dsp_sig_std_dev@PLT
 310      00
 311 01aa F20F1144 		movsd	%xmm0, 24(%rsp)
 311      2418
 312 01b0 488D3500 		leaq	.LC12(%rip), %rsi
 312      000000
 313 01b7 BF010000 		movl	$1, %edi
 313      00
 314 01bc B8000000 		movl	$0, %eax
 314      00
 315 01c1 E8000000 		call	__printf_chk@PLT
 315      00
 316 01c6 488D3500 		leaq	.LC13(%rip), %rsi
 316      000000
 317 01cd BF010000 		movl	$1, %edi
 317      00
 318 01d2 B8000000 		movl	$0, %eax
 318      00
 319 01d7 E8000000 		call	__printf_chk@PLT
 319      00
 320 01dc F20F1044 		movsd	8(%rsp), %xmm0
 320      2408
 321 01e2 488D3500 		leaq	.LC14(%rip), %rsi
 321      000000
 322 01e9 BF010000 		movl	$1, %edi
 322      00
 323 01ee B8010000 		movl	$1, %eax
 323      00
 324 01f3 E8000000 		call	__printf_chk@PLT
 324      00
 325 01f8 F20F1044 		movsd	16(%rsp), %xmm0
 325      2410
 326 01fe 488D3500 		leaq	.LC15(%rip), %rsi
 326      000000
 327 0205 BF010000 		movl	$1, %edi
 327      00
 328 020a B8010000 		movl	$1, %eax
 328      00
 329 020f E8000000 		call	__printf_chk@PLT
 329      00
 330 0214 F20F1044 		movsd	24(%rsp), %xmm0
 330      2418
 331 021a 488D3500 		leaq	.LC16(%rip), %rsi
 331      000000
 332 0221 BF010000 		movl	$1, %edi
 332      00
 333 0226 B8010000 		movl	$1, %eax
 333      00
 334 022b E8000000 		call	__printf_chk@PLT
 334      00
 335 0230 488D3500 		leaq	.LC17(%rip), %rsi
 335      000000
 336 0237 BF010000 		movl	$1, %edi
 336      00
 337 023c B8000000 		movl	$0, %eax
GAS LISTING /tmp/ccbsBSXt.s 			page 12


 337      00
 338 0241 E8000000 		call	__printf_chk@PLT
 338      00
 339 0246 488D3500 		leaq	.LC18(%rip), %rsi
 339      000000
 340 024d BF010000 		movl	$1, %edi
 340      00
 341 0252 B8000000 		movl	$0, %eax
 341      00
 342 0257 E8000000 		call	__printf_chk@PLT
 342      00
 343 025c 488DBC24 		leaq	7712(%rsp), %rdi
 343      201E0000 
 344 0264 41B81D00 		movl	$29, %r8d
 344      0000
 345 026a 488D0D00 		leaq	Impulse_response(%rip), %rcx
 345      000000
 346 0271 BA400100 		movl	$320, %edx
 346      00
 347 0276 488D3500 		leaq	InputSignal_f32_1kHz_15kHz(%rip), %rsi
 347      000000
 348 027d E8000000 		call	dsp_convolution@PLT
 348      00
 349 0282 BA400100 		movl	$320, %edx
 349      00
 350 0287 488D3500 		leaq	InputSignal_f32_1kHz_15kHz(%rip), %rsi
 350      000000
 351 028e 488D3D00 		leaq	.LC19(%rip), %rdi
 351      000000
 352 0295 E8000000 		call	create_dat_file
 352      00
 353 029a 85C0     		testl	%eax, %eax
 354 029c 0F849102 		je	.L22
 354      0000
 355 02a2 488D3500 		leaq	.LC21(%rip), %rsi
 355      000000
 356 02a9 BF010000 		movl	$1, %edi
 356      00
 357 02ae B8000000 		movl	$0, %eax
 357      00
 358 02b3 E8000000 		call	__printf_chk@PLT
 358      00
 359 02b8 BA1D0000 		movl	$29, %edx
 359      00
 360 02bd 488D3500 		leaq	Impulse_response(%rip), %rsi
 360      000000
 361 02c4 488D3D00 		leaq	.LC22(%rip), %rdi
 361      000000
 362 02cb E8000000 		call	create_dat_file
 362      00
 363 02d0 85C0     		testl	%eax, %eax
 364 02d2 0F849B02 		je	.L23
 364      0000
 365 02d8 488D3500 		leaq	.LC24(%rip), %rsi
 365      000000
 366 02df BF010000 		movl	$1, %edi
 366      00
GAS LISTING /tmp/ccbsBSXt.s 			page 13


 367 02e4 B8000000 		movl	$0, %eax
 367      00
 368 02e9 E8000000 		call	__printf_chk@PLT
 368      00
 369 02ee 488DB424 		leaq	7712(%rsp), %rsi
 369      201E0000 
 370 02f6 BA5D0100 		movl	$349, %edx
 370      00
 371 02fb 488D3D00 		leaq	.LC25(%rip), %rdi
 371      000000
 372 0302 E8000000 		call	create_dat_file
 372      00
 373 0307 85C0     		testl	%eax, %eax
 374 0309 0F848302 		je	.L24
 374      0000
 375 030f 488D3500 		leaq	.LC27(%rip), %rsi
 375      000000
 376 0316 BF010000 		movl	$1, %edi
 376      00
 377 031b B8000000 		movl	$0, %eax
 377      00
 378 0320 E8000000 		call	__printf_chk@PLT
 378      00
 379 0325 488DBC24 		leaq	2592(%rsp), %rdi
 379      200A0000 
 380 032d BA400100 		movl	$320, %edx
 380      00
 381 0332 488D3500 		leaq	InputSignal_f32_1kHz_15kHz(%rip), %rsi
 381      000000
 382 0339 E8000000 		call	dsp_running_sum@PLT
 382      00
 383 033e BA400100 		movl	$320, %edx
 383      00
 384 0343 488D3500 		leaq	InputSignal_f32_1kHz_15kHz(%rip), %rsi
 384      000000
 385 034a 488D3D00 		leaq	.LC28(%rip), %rdi
 385      000000
 386 0351 E8000000 		call	create_dat_file
 386      00
 387 0356 85C0     		testl	%eax, %eax
 388 0358 0F845302 		je	.L25
 388      0000
 389 035e 488D3500 		leaq	.LC30(%rip), %rsi
 389      000000
 390 0365 BF010000 		movl	$1, %edi
 390      00
 391 036a B8000000 		movl	$0, %eax
 391      00
 392 036f E8000000 		call	__printf_chk@PLT
 392      00
 393 0374 488DB424 		leaq	2592(%rsp), %rsi
 393      200A0000 
 394 037c BA400100 		movl	$320, %edx
 394      00
 395 0381 488D3D00 		leaq	.LC31(%rip), %rdi
 395      000000
 396 0388 E8000000 		call	create_dat_file
GAS LISTING /tmp/ccbsBSXt.s 			page 14


 396      00
 397 038d 85C0     		testl	%eax, %eax
 398 038f 0F843B02 		je	.L26
 398      0000
 399 0395 488D3500 		leaq	.LC33(%rip), %rsi
 399      000000
 400 039c BF010000 		movl	$1, %edi
 400      00
 401 03a1 B8000000 		movl	$0, %eax
 401      00
 402 03a6 E8000000 		call	__printf_chk@PLT
 402      00
 403 03ab 488D3500 		leaq	.LC11(%rip), %rsi
 403      000000
 404 03b2 BF010000 		movl	$1, %edi
 404      00
 405 03b7 B8000000 		movl	$0, %eax
 405      00
 406 03bc E8000000 		call	__printf_chk@PLT
 406      00
 407 03c1 488D3500 		leaq	.LC34(%rip), %rsi
 407      000000
 408 03c8 BF010000 		movl	$1, %edi
 408      00
 409 03cd B8000000 		movl	$0, %eax
 409      00
 410 03d2 E8000000 		call	__printf_chk@PLT
 410      00
 411 03d7 488D3500 		leaq	.LC35(%rip), %rsi
 411      000000
 412 03de BF010000 		movl	$1, %edi
 412      00
 413 03e3 B8000000 		movl	$0, %eax
 413      00
 414 03e8 E8000000 		call	__printf_chk@PLT
 414      00
 415 03ed 488D9424 		leaq	1312(%rsp), %rdx
 415      20050000 
 416 03f5 488D7424 		leaq	32(%rsp), %rsi
 416      20
 417 03fa B9400100 		movl	$320, %ecx
 417      00
 418 03ff 488D3D00 		leaq	InputSignal_f32_1kHz_15kHz(%rip), %rdi
 418      000000
 419 0406 E8000000 		call	dsp_dft@PLT
 419      00
 420 040b BA400100 		movl	$320, %edx
 420      00
 421 0410 488D3500 		leaq	InputSignal_f32_1kHz_15kHz(%rip), %rsi
 421      000000
 422 0417 488D3D00 		leaq	.LC36(%rip), %rdi
 422      000000
 423 041e E8000000 		call	create_dat_file
 423      00
 424 0423 85C0     		testl	%eax, %eax
 425 0425 0F84C701 		je	.L27
 425      0000
GAS LISTING /tmp/ccbsBSXt.s 			page 15


 426 042b 488D3500 		leaq	.LC38(%rip), %rsi
 426      000000
 427 0432 BF010000 		movl	$1, %edi
 427      00
 428 0437 B8000000 		movl	$0, %eax
 428      00
 429 043c E8000000 		call	__printf_chk@PLT
 429      00
 430 0441 488D7424 		leaq	32(%rsp), %rsi
 430      20
 431 0446 BAA00000 		movl	$160, %edx
 431      00
 432 044b 488D3D00 		leaq	.LC39(%rip), %rdi
 432      000000
 433 0452 E8000000 		call	create_dat_file
 433      00
 434 0457 85C0     		testl	%eax, %eax
 435 0459 0F84B501 		je	.L28
 435      0000
 436 045f 488D3500 		leaq	.LC41(%rip), %rsi
 436      000000
 437 0466 BF010000 		movl	$1, %edi
 437      00
 438 046b B8000000 		movl	$0, %eax
 438      00
 439 0470 E8000000 		call	__printf_chk@PLT
 439      00
 440 0475 488DB424 		leaq	1312(%rsp), %rsi
 440      20050000 
 441 047d BAA00000 		movl	$160, %edx
 441      00
 442 0482 488D3D00 		leaq	.LC42(%rip), %rdi
 442      000000
 443 0489 E8000000 		call	create_dat_file
 443      00
 444 048e 85C0     		testl	%eax, %eax
 445 0490 0F84A001 		je	.L29
 445      0000
 446 0496 488D3500 		leaq	.LC44(%rip), %rsi
 446      000000
 447 049d BF010000 		movl	$1, %edi
 447      00
 448 04a2 B8000000 		movl	$0, %eax
 448      00
 449 04a7 E8000000 		call	__printf_chk@PLT
 449      00
 450 04ac 488D9424 		leaq	1312(%rsp), %rdx
 450      20050000 
 451 04b4 488D7424 		leaq	32(%rsp), %rsi
 451      20
 452 04b9 488D9C24 		leaq	5152(%rsp), %rbx
 452      20140000 
 453 04c1 B9400100 		movl	$320, %ecx
 453      00
 454 04c6 4889DF   		movq	%rbx, %rdi
 455 04c9 E8000000 		call	dsp_idft@PLT
 455      00
GAS LISTING /tmp/ccbsBSXt.s 			page 16


 456 04ce BA400100 		movl	$320, %edx
 456      00
 457 04d3 4889DE   		movq	%rbx, %rsi
 458 04d6 488D3D00 		leaq	.LC45(%rip), %rdi
 458      000000
 459 04dd E8000000 		call	create_dat_file
 459      00
 460 04e2 85C0     		testl	%eax, %eax
 461 04e4 0F846E01 		je	.L30
 461      0000
 462 04ea 488D3500 		leaq	.LC47(%rip), %rsi
 462      000000
 463 04f1 BF010000 		movl	$1, %edi
 463      00
 464 04f6 B8000000 		movl	$0, %eax
 464      00
 465 04fb E8000000 		call	__printf_chk@PLT
 465      00
 466 0500 B8000000 		movl	$0, %eax
 466      00
 467 0505 EB49     		jmp	.L7
 468              	.L21:
 469 0507 488D1500 		leaq	.LC4(%rip), %rdx
 469      000000
 470 050e BE010000 		movl	$1, %esi
 470      00
 471 0513 488B3D00 		movq	stderr(%rip), %rdi
 471      000000
 472 051a B8000000 		movl	$0, %eax
 472      00
 473 051f E8000000 		call	__fprintf_chk@PLT
 473      00
 474 0524 4C89E7   		movq	%r12, %rdi
 475 0527 E8000000 		call	free@PLT
 475      00
 476 052c B8010000 		movl	$1, %eax
 476      00
 477 0531 EB1D     		jmp	.L7
 478              	.L22:
 479 0533 488D1500 		leaq	.LC20(%rip), %rdx
 479      000000
 480 053a BE010000 		movl	$1, %esi
 480      00
 481 053f 488B3D00 		movq	stderr(%rip), %rdi
 481      000000
 482 0546 E8000000 		call	__fprintf_chk@PLT
 482      00
 483 054b B8010000 		movl	$1, %eax
 483      00
 484              	.L7:
 485 0550 488B9424 		movq	10504(%rsp), %rdx
 485      08290000 
 486 0558 64483314 		xorq	%fs:40, %rdx
 486      25280000 
 486      00
 487 0561 0F851301 		jne	.L31
 487      0000
GAS LISTING /tmp/ccbsBSXt.s 			page 17


 488 0567 4881C410 		addq	$10512, %rsp
 488      290000
 489              		.cfi_remember_state
 490              		.cfi_def_cfa_offset 32
 491 056e 5B       		popq	%rbx
 492              		.cfi_def_cfa_offset 24
 493 056f 5D       		popq	%rbp
 494              		.cfi_def_cfa_offset 16
 495 0570 415C     		popq	%r12
 496              		.cfi_def_cfa_offset 8
 497 0572 C3       		ret
 498              	.L23:
 499              		.cfi_restore_state
 500 0573 488D1500 		leaq	.LC23(%rip), %rdx
 500      000000
 501 057a BE010000 		movl	$1, %esi
 501      00
 502 057f 488B3D00 		movq	stderr(%rip), %rdi
 502      000000
 503 0586 E8000000 		call	__fprintf_chk@PLT
 503      00
 504 058b B8010000 		movl	$1, %eax
 504      00
 505 0590 EBBE     		jmp	.L7
 506              	.L24:
 507 0592 488D1500 		leaq	.LC26(%rip), %rdx
 507      000000
 508 0599 BE010000 		movl	$1, %esi
 508      00
 509 059e 488B3D00 		movq	stderr(%rip), %rdi
 509      000000
 510 05a5 E8000000 		call	__fprintf_chk@PLT
 510      00
 511 05aa B8010000 		movl	$1, %eax
 511      00
 512 05af EB9F     		jmp	.L7
 513              	.L25:
 514 05b1 488D1500 		leaq	.LC29(%rip), %rdx
 514      000000
 515 05b8 BE010000 		movl	$1, %esi
 515      00
 516 05bd 488B3D00 		movq	stderr(%rip), %rdi
 516      000000
 517 05c4 E8000000 		call	__fprintf_chk@PLT
 517      00
 518 05c9 B8010000 		movl	$1, %eax
 518      00
 519 05ce EB80     		jmp	.L7
 520              	.L26:
 521 05d0 488D1500 		leaq	.LC32(%rip), %rdx
 521      000000
 522 05d7 BE010000 		movl	$1, %esi
 522      00
 523 05dc 488B3D00 		movq	stderr(%rip), %rdi
 523      000000
 524 05e3 E8000000 		call	__fprintf_chk@PLT
 524      00
GAS LISTING /tmp/ccbsBSXt.s 			page 18


 525 05e8 B8010000 		movl	$1, %eax
 525      00
 526 05ed E95EFFFF 		jmp	.L7
 526      FF
 527              	.L27:
 528 05f2 488D1500 		leaq	.LC37(%rip), %rdx
 528      000000
 529 05f9 BE010000 		movl	$1, %esi
 529      00
 530 05fe 488B3D00 		movq	stderr(%rip), %rdi
 530      000000
 531 0605 E8000000 		call	__fprintf_chk@PLT
 531      00
 532 060a B8010000 		movl	$1, %eax
 532      00
 533 060f E93CFFFF 		jmp	.L7
 533      FF
 534              	.L28:
 535 0614 488D1500 		leaq	.LC40(%rip), %rdx
 535      000000
 536 061b BE010000 		movl	$1, %esi
 536      00
 537 0620 488B3D00 		movq	stderr(%rip), %rdi
 537      000000
 538 0627 E8000000 		call	__fprintf_chk@PLT
 538      00
 539 062c B8010000 		movl	$1, %eax
 539      00
 540 0631 E91AFFFF 		jmp	.L7
 540      FF
 541              	.L29:
 542 0636 488D1500 		leaq	.LC43(%rip), %rdx
 542      000000
 543 063d BE010000 		movl	$1, %esi
 543      00
 544 0642 488B3D00 		movq	stderr(%rip), %rdi
 544      000000
 545 0649 E8000000 		call	__fprintf_chk@PLT
 545      00
 546 064e B8010000 		movl	$1, %eax
 546      00
 547 0653 E9F8FEFF 		jmp	.L7
 547      FF
 548              	.L30:
 549 0658 488D1500 		leaq	.LC46(%rip), %rdx
 549      000000
 550 065f BE010000 		movl	$1, %esi
 550      00
 551 0664 488B3D00 		movq	stderr(%rip), %rdi
 551      000000
 552 066b E8000000 		call	__fprintf_chk@PLT
 552      00
 553 0670 B8010000 		movl	$1, %eax
 553      00
 554 0675 E9D6FEFF 		jmp	.L7
 554      FF
 555              	.L31:
GAS LISTING /tmp/ccbsBSXt.s 			page 19


 556 067a E8000000 		call	__stack_chk_fail@PLT
 556      00
 557              		.cfi_endproc
 558              	.LFE36:
 560              		.ident	"GCC: (Ubuntu 7.5.0-3ubuntu1~18.04) 7.5.0"
 561              		.section	.note.GNU-stack,"",@progbits
GAS LISTING /tmp/ccbsBSXt.s 			page 20

