GAS LISTING /tmp/ccgeDKf8.s 			page 1


   1              		.file	"main.c"
   2              		.text
   3              		.section	.rodata.check_mem_alloc.str1.1,"aMS",@progbits,1
   4              	.LC0:
   5 0000 4D656D6D 		.string	"Memmory allocation error!\n"
   5      6F727920 
   5      616C6C6F 
   5      63617469 
   5      6F6E2065 
   6              		.section	.rodata.check_mem_alloc.str1.8,"aMS",@progbits,1
   7              		.align 8
   8              	.LC1:
   9 0000 4D656D6D 		.string	"Memmory allocated correctly (address:%p)\n"
   9      6F727920 
   9      616C6C6F 
   9      63617465 
   9      6420636F 
  10              		.section	.text.check_mem_alloc,"ax",@progbits
  12              	check_mem_alloc:
  13              	.LFB38:
  14              		.cfi_startproc
  15 0000 4883EC08 		subq	$8, %rsp
  16              		.cfi_def_cfa_offset 16
  17 0004 4885FF   		testq	%rdi, %rdi
  18 0007 741E     		je	.L4
  19 0009 4889FA   		movq	%rdi, %rdx
  20 000c 488D3500 		leaq	.LC1(%rip), %rsi
  20      000000
  21 0013 BF010000 		movl	$1, %edi
  21      00
  22 0018 B8000000 		movl	$0, %eax
  22      00
  23 001d E8000000 		call	__printf_chk@PLT
  23      00
  24 0022 4883C408 		addq	$8, %rsp
  25              		.cfi_remember_state
  26              		.cfi_def_cfa_offset 8
  27 0026 C3       		ret
  28              	.L4:
  29              		.cfi_restore_state
  30 0027 488D1500 		leaq	.LC0(%rip), %rdx
  30      000000
  31 002e BE010000 		movl	$1, %esi
  31      00
  32 0033 488B3D00 		movq	stderr(%rip), %rdi
  32      000000
  33 003a B8000000 		movl	$0, %eax
  33      00
  34 003f E8000000 		call	__fprintf_chk@PLT
  34      00
  35 0044 BF010000 		movl	$1, %edi
  35      00
  36 0049 E8000000 		call	exit@PLT
  36      00
  37              		.cfi_endproc
  38              	.LFE38:
  40              		.section	.text.prepare_path,"ax",@progbits
GAS LISTING /tmp/ccgeDKf8.s 			page 2


  41              		.globl	prepare_path
  43              	prepare_path:
  44              	.LFB39:
  45              		.cfi_startproc
  46 0000 4155     		pushq	%r13
  47              		.cfi_def_cfa_offset 16
  48              		.cfi_offset 13, -16
  49 0002 4154     		pushq	%r12
  50              		.cfi_def_cfa_offset 24
  51              		.cfi_offset 12, -24
  52 0004 55       		pushq	%rbp
  53              		.cfi_def_cfa_offset 32
  54              		.cfi_offset 6, -32
  55 0005 53       		pushq	%rbx
  56              		.cfi_def_cfa_offset 40
  57              		.cfi_offset 3, -40
  58 0006 4883EC08 		subq	$8, %rsp
  59              		.cfi_def_cfa_offset 48
  60 000a 4989FD   		movq	%rdi, %r13
  61 000d 4989F4   		movq	%rsi, %r12
  62 0010 E8000000 		call	strlen@PLT
  62      00
  63 0015 4889C3   		movq	%rax, %rbx
  64 0018 4C89E7   		movq	%r12, %rdi
  65 001b E8000000 		call	strlen@PLT
  65      00
  66 0020 8D7C1802 		leal	2(%rax,%rbx), %edi
  67 0024 4863FF   		movslq	%edi, %rdi
  68 0027 E8000000 		call	malloc@PLT
  68      00
  69 002c 4889C5   		movq	%rax, %rbp
  70 002f 4C89EE   		movq	%r13, %rsi
  71 0032 4889C7   		movq	%rax, %rdi
  72 0035 E8000000 		call	strcpy@PLT
  72      00
  73 003a 4863DB   		movslq	%ebx, %rbx
  74 003d C6441D00 		movb	$47, 0(%rbp,%rbx)
  74      2F
  75 0042 488D7C1D 		leaq	1(%rbp,%rbx), %rdi
  75      01
  76 0047 4C89E6   		movq	%r12, %rsi
  77 004a E8000000 		call	strcpy@PLT
  77      00
  78 004f 4889E8   		movq	%rbp, %rax
  79 0052 4883C408 		addq	$8, %rsp
  80              		.cfi_def_cfa_offset 40
  81 0056 5B       		popq	%rbx
  82              		.cfi_def_cfa_offset 32
  83 0057 5D       		popq	%rbp
  84              		.cfi_def_cfa_offset 24
  85 0058 415C     		popq	%r12
  86              		.cfi_def_cfa_offset 16
  87 005a 415D     		popq	%r13
  88              		.cfi_def_cfa_offset 8
  89 005c C3       		ret
  90              		.cfi_endproc
  91              	.LFE39:
GAS LISTING /tmp/ccgeDKf8.s 			page 3


  93              		.section	.rodata.create_dat_file.str1.1,"aMS",@progbits,1
  94              	.LC2:
  95 0000 772B00   		.string	"w+"
  96              		.section	.rodata.create_dat_file.str1.8,"aMS",@progbits,1
  97              		.align 8
  98              	.LC3:
  99 0000 416E2065 		.string	"An error occured in file creation: %s\n"
  99      72726F72 
  99      206F6363 
  99      75726564 
  99      20696E20 
 100              		.section	.rodata.create_dat_file.str1.1
 101              	.LC4:
 102 0003 0A256600 		.string	"\n%f"
 103              	.LC5:
 104 0007 25732063 		.string	"%s created. (%d elements)\n"
 104      72656174 
 104      65642E20 
 104      28256420 
 104      656C656D 
 105              		.section	.text.create_dat_file,"ax",@progbits
 106              		.globl	create_dat_file
 108              	create_dat_file:
 109              	.LFB37:
 110              		.cfi_startproc
 111 0000 4156     		pushq	%r14
 112              		.cfi_def_cfa_offset 16
 113              		.cfi_offset 14, -16
 114 0002 4155     		pushq	%r13
 115              		.cfi_def_cfa_offset 24
 116              		.cfi_offset 13, -24
 117 0004 4154     		pushq	%r12
 118              		.cfi_def_cfa_offset 32
 119              		.cfi_offset 12, -32
 120 0006 55       		pushq	%rbp
 121              		.cfi_def_cfa_offset 40
 122              		.cfi_offset 6, -40
 123 0007 53       		pushq	%rbx
 124              		.cfi_def_cfa_offset 48
 125              		.cfi_offset 3, -48
 126 0008 4989D5   		movq	%rdx, %r13
 127 000b 4989CC   		movq	%rcx, %r12
 128 000e E8000000 		call	prepare_path
 128      00
 129 0013 4885C0   		testq	%rax, %rax
 130 0016 743A     		je	.L13
 131 0018 4989C6   		movq	%rax, %r14
 132 001b 4889C2   		movq	%rax, %rdx
 133 001e 488D3500 		leaq	.LC1(%rip), %rsi
 133      000000
 134 0025 BF010000 		movl	$1, %edi
 134      00
 135 002a B8000000 		movl	$0, %eax
 135      00
 136 002f E8000000 		call	__printf_chk@PLT
 136      00
 137 0034 488D3500 		leaq	.LC2(%rip), %rsi
GAS LISTING /tmp/ccgeDKf8.s 			page 4


 137      000000
 138 003b 4C89F7   		movq	%r14, %rdi
 139 003e E8000000 		call	fopen@PLT
 139      00
 140 0043 4889C5   		movq	%rax, %rbp
 141 0046 4885C0   		testq	%rax, %rax
 142 0049 742E     		je	.L14
 143 004b BB000000 		movl	$0, %ebx
 143      00
 144 0050 EB75     		jmp	.L9
 145              	.L13:
 146 0052 488D1500 		leaq	.LC0(%rip), %rdx
 146      000000
 147 0059 BE010000 		movl	$1, %esi
 147      00
 148 005e 488B3D00 		movq	stderr(%rip), %rdi
 148      000000
 149 0065 B8000000 		movl	$0, %eax
 149      00
 150 006a E8000000 		call	__fprintf_chk@PLT
 150      00
 151 006f BF010000 		movl	$1, %edi
 151      00
 152 0074 E8000000 		call	exit@PLT
 152      00
 153              	.L14:
 154 0079 4C89F1   		movq	%r14, %rcx
 155 007c 488D1500 		leaq	.LC3(%rip), %rdx
 155      000000
 156 0083 BE010000 		movl	$1, %esi
 156      00
 157 0088 488B3D00 		movq	stderr(%rip), %rdi
 157      000000
 158 008f B8000000 		movl	$0, %eax
 158      00
 159 0094 E8000000 		call	__fprintf_chk@PLT
 159      00
 160 0099 BF010000 		movl	$1, %edi
 160      00
 161 009e E8000000 		call	exit@PLT
 161      00
 162              	.L10:
 163 00a3 F2410F10 		movsd	0(%r13,%rbx,8), %xmm0
 163      44DD00
 164 00aa 488D1500 		leaq	.LC4(%rip), %rdx
 164      000000
 165 00b1 BE010000 		movl	$1, %esi
 165      00
 166 00b6 4889EF   		movq	%rbp, %rdi
 167 00b9 B8010000 		movl	$1, %eax
 167      00
 168 00be E8000000 		call	__fprintf_chk@PLT
 168      00
 169 00c3 4883C301 		addq	$1, %rbx
 170              	.L9:
 171 00c7 4C39E3   		cmpq	%r12, %rbx
 172 00ca 72D7     		jb	.L10
GAS LISTING /tmp/ccgeDKf8.s 			page 5


 173 00cc 4D89E0   		movq	%r12, %r8
 174 00cf 4C89F1   		movq	%r14, %rcx
 175 00d2 488D1500 		leaq	.LC5(%rip), %rdx
 175      000000
 176 00d9 BE010000 		movl	$1, %esi
 176      00
 177 00de 488B3D00 		movq	stdout(%rip), %rdi
 177      000000
 178 00e5 B8000000 		movl	$0, %eax
 178      00
 179 00ea E8000000 		call	__fprintf_chk@PLT
 179      00
 180 00ef 4889EF   		movq	%rbp, %rdi
 181 00f2 E8000000 		call	fclose@PLT
 181      00
 182 00f7 4C89F7   		movq	%r14, %rdi
 183 00fa E8000000 		call	free@PLT
 183      00
 184 00ff 5B       		popq	%rbx
 185              		.cfi_def_cfa_offset 40
 186 0100 5D       		popq	%rbp
 187              		.cfi_def_cfa_offset 32
 188 0101 415C     		popq	%r12
 189              		.cfi_def_cfa_offset 24
 190 0103 415D     		popq	%r13
 191              		.cfi_def_cfa_offset 16
 192 0105 415E     		popq	%r14
 193              		.cfi_def_cfa_offset 8
 194 0107 C3       		ret
 195              		.cfi_endproc
 196              	.LFE37:
 198              		.section	.rodata.main.str1.1,"aMS",@progbits,1
 199              	.LC6:
 200 0000 54657374 		.string	"Testing DSP library\n"
 200      696E6720 
 200      44535020 
 200      6C696272 
 200      6172790A 
 201              	.LC7:
 202 0015 3D3D3D3D 		.string	"===================\n"
 202      3D3D3D3D 
 202      3D3D3D3D 
 202      3D3D3D3D 
 202      3D3D3D0A 
 203              	.LC8:
 204 002a 44657665 		.string	"Developer: Istvan Milak\n\n"
 204      6C6F7065 
 204      723A2049 
 204      73747661 
 204      6E204D69 
 205              		.section	.rodata.main.str1.8,"aMS",@progbits,1
 206              		.align 8
 207              	.LC9:
 208 0000 54686520 		.string	"The software generate the calculation result *.dat files\n"
 208      736F6674 
 208      77617265 
 208      2067656E 
GAS LISTING /tmp/ccgeDKf8.s 			page 6


 208      65726174 
 209 003a 00000000 		.align 8
 209      0000
 210              	.LC10:
 211 0040 596F7520 		.string	"You can find the correspondig dat files in test/dat/* dirs with html output and gnuplot s
 211      63616E20 
 211      66696E64 
 211      20746865 
 211      20636F72 
 212              		.section	.rodata.main.str1.1
 213              	.LC11:
 214 0044 0A00     		.string	"\n"
 215              	.LC12:
 216 0046 2F70726F 		.string	"/proc/self/exe"
 216      632F7365 
 216      6C662F65 
 216      786500
 217              	.LC13:
 218 0055 46756C6C 		.string	"Full path of executable:\t%s\n"
 218      20706174 
 218      68206F66 
 218      20657865 
 218      63757461 
 219              		.section	.rodata.main.str1.8
 220 00a1 00000000 		.align 8
 220      000000
 221              	.LC14:
 222 00a8 4162736F 		.string	"Absolute path of test directory:\t%s\n\n"
 222      6C757465 
 222      20706174 
 222      68206F66 
 222      20746573 
 223 00ce 0000     		.align 8
 224              	.LC15:
 225 00d0 53746174 		.string	"Statistic of Input Signal (1kHz and 15 kHz sine components)\n"
 225      69737469 
 225      63206F66 
 225      20496E70 
 225      75742053 
 226 010d 000000   		.align 8
 227              	.LC16:
 228 0110 2D2D2D2D 		.string	"-----------------------------------------------------------\n"
 228      2D2D2D2D 
 228      2D2D2D2D 
 228      2D2D2D2D 
 228      2D2D2D2D 
 229              		.section	.rodata.main.str1.1
 230              	.LC17:
 231 0072 6D65616E 		.string	"mean:          %lf\n"
 231      3A202020 
 231      20202020 
 231      20202025 
 231      6C660A00 
 232              	.LC18:
 233 0086 76617269 		.string	"variance:      %lf\n"
 233      616E6365 
 233      3A202020 
GAS LISTING /tmp/ccgeDKf8.s 			page 7


 233      20202025 
 233      6C660A00 
 234              	.LC19:
 235 009a 7374616E 		.string	"standard dev:  %lf\n\n"
 235      64617264 
 235      20646576 
 235      3A202025 
 235      6C660A0A 
 236              	.LC20:
 237 00af 436F6E76 		.string	"Convolution test\n"
 237      6F6C7574 
 237      696F6E20 
 237      74657374 
 237      0A00
 238              	.LC21:
 239 00c1 2D2D2D2D 		.string	"----------------\n"
 239      2D2D2D2D 
 239      2D2D2D2D 
 239      2D2D2D2D 
 239      0A00
 240              		.section	.rodata.main.str1.8
 241 014d 000000   		.align 8
 242              	.LC22:
 243 0150 6461742F 		.string	"dat/convolution/conv_input_signal.dat"
 243      636F6E76 
 243      6F6C7574 
 243      696F6E2F 
 243      636F6E76 
 244 0176 0000     		.align 8
 245              	.LC23:
 246 0178 6461742F 		.string	"dat/convolution/conv_impulse_response.dat"
 246      636F6E76 
 246      6F6C7574 
 246      696F6E2F 
 246      636F6E76 
 247 01a2 00000000 		.align 8
 247      0000
 248              	.LC24:
 249 01a8 6461742F 		.string	"dat/convolution/conv_output_signal.dat"
 249      636F6E76 
 249      6F6C7574 
 249      696F6E2F 
 249      636F6E76 
 250 01cf 00       		.align 8
 251              	.LC25:
 252 01d0 6461742F 		.string	"dat/convolution/rsum_input_signal.dat"
 252      636F6E76 
 252      6F6C7574 
 252      696F6E2F 
 252      7273756D 
 253 01f6 0000     		.align 8
 254              	.LC26:
 255 01f8 6461742F 		.string	"dat/convolution/rsum_output_signal.dat"
 255      636F6E76 
 255      6F6C7574 
 255      696F6E2F 
 255      7273756D 
GAS LISTING /tmp/ccgeDKf8.s 			page 8


 256 021f 00       		.align 8
 257              	.LC27:
 258 0220 44697363 		.string	"Discrete Fourier transformation test\n"
 258      72657465 
 258      20466F75 
 258      72696572 
 258      20747261 
 259 0246 0000     		.align 8
 260              	.LC28:
 261 0248 2D2D2D2D 		.string	"------------------------------------\n"
 261      2D2D2D2D 
 261      2D2D2D2D 
 261      2D2D2D2D 
 261      2D2D2D2D 
 262              		.section	.rodata.main.str1.1
 263              	.LC29:
 264 00d3 6461742F 		.string	"dat/dft/dft_input_signal.dat"
 264      6466742F 
 264      6466745F 
 264      696E7075 
 264      745F7369 
 265              	.LC30:
 266 00f0 6461742F 		.string	"dat/dft/dft_output_rex.dat"
 266      6466742F 
 266      6466745F 
 266      6F757470 
 266      75745F72 
 267              	.LC31:
 268 010b 6461742F 		.string	"dat/dft/dft_output_imx.dat"
 268      6466742F 
 268      6466745F 
 268      6F757470 
 268      75745F69 
 269              		.section	.rodata.main.str1.8
 270 026e 0000     		.align 8
 271              	.LC32:
 272 0270 2F646174 		.string	"/dat/dft/idft_output_signal.dat"
 272      2F646674 
 272      2F696466 
 272      745F6F75 
 272      74707574 
 273              		.section	.rodata.main.str1.1
 274              	.LC33:
 275 0126 6461742F 		.string	"dat/dft/dft_output_mag.dat"
 275      6466742F 
 275      6466745F 
 275      6F757470 
 275      75745F6D 
 276              		.section	.rodata.main.str1.8
 277              		.align 8
 278              	.LC34:
 279 0290 6461742F 		.string	"dat/dft/dft_ecg_input_signal.dat"
 279      6466742F 
 279      6466745F 
 279      6563675F 
 279      696E7075 
 280 02b1 00000000 		.align 8
GAS LISTING /tmp/ccgeDKf8.s 			page 9


 280      000000
 281              	.LC35:
 282 02b8 6461742F 		.string	"dat/dft/dft_ecg_output_rex.dat"
 282      6466742F 
 282      6466745F 
 282      6563675F 
 282      6F757470 
 283 02d7 00       		.align 8
 284              	.LC36:
 285 02d8 6461742F 		.string	"dat/dft/dft_ecg_output_imx.dat"
 285      6466742F 
 285      6466745F 
 285      6563675F 
 285      6F757470 
 286 02f7 00       		.align 8
 287              	.LC37:
 288 02f8 6461742F 		.string	"dat/dft/idft_ecg_output_signal.dat"
 288      6466742F 
 288      69646674 
 288      5F656367 
 288      5F6F7574 
 289 031b 00000000 		.align 8
 289      00
 290              	.LC38:
 291 0320 52656374 		.string	"Rectengular to polar notation\n"
 291      656E6775 
 291      6C617220 
 291      746F2070 
 291      6F6C6172 
 292 033f 00       		.align 8
 293              	.LC39:
 294 0340 6461742F 		.string	"dat/dft/dft_ecg_output_mag.dat"
 294      6466742F 
 294      6466745F 
 294      6563675F 
 294      6F757470 
 295 035f 00       		.align 8
 296              	.LC40:
 297 0360 6461742F 		.string	"dat/dft/dft_ecg_output_phase.dat"
 297      6466742F 
 297      6466745F 
 297      6563675F 
 297      6F757470 
 298              		.section	.text.main,"ax",@progbits
 299              		.globl	main
 301              	main:
 302              	.LFB36:
 303              		.cfi_startproc
 304 0000 4157     		pushq	%r15
 305              		.cfi_def_cfa_offset 16
 306              		.cfi_offset 15, -16
 307 0002 4156     		pushq	%r14
 308              		.cfi_def_cfa_offset 24
 309              		.cfi_offset 14, -24
 310 0004 4155     		pushq	%r13
 311              		.cfi_def_cfa_offset 32
 312              		.cfi_offset 13, -32
GAS LISTING /tmp/ccgeDKf8.s 			page 10


 313 0006 4154     		pushq	%r12
 314              		.cfi_def_cfa_offset 40
 315              		.cfi_offset 12, -40
 316 0008 55       		pushq	%rbp
 317              		.cfi_def_cfa_offset 48
 318              		.cfi_offset 6, -48
 319 0009 53       		pushq	%rbx
 320              		.cfi_def_cfa_offset 56
 321              		.cfi_offset 3, -56
 322 000a 4883EC28 		subq	$40, %rsp
 323              		.cfi_def_cfa_offset 96
 324 000e 488D3500 		leaq	.LC6(%rip), %rsi
 324      000000
 325 0015 BF010000 		movl	$1, %edi
 325      00
 326 001a B8000000 		movl	$0, %eax
 326      00
 327 001f E8000000 		call	__printf_chk@PLT
 327      00
 328 0024 488D3500 		leaq	.LC7(%rip), %rsi
 328      000000
 329 002b BF010000 		movl	$1, %edi
 329      00
 330 0030 B8000000 		movl	$0, %eax
 330      00
 331 0035 E8000000 		call	__printf_chk@PLT
 331      00
 332 003a 488D3500 		leaq	.LC8(%rip), %rsi
 332      000000
 333 0041 BF010000 		movl	$1, %edi
 333      00
 334 0046 B8000000 		movl	$0, %eax
 334      00
 335 004b E8000000 		call	__printf_chk@PLT
 335      00
 336 0050 488D3500 		leaq	.LC9(%rip), %rsi
 336      000000
 337 0057 BF010000 		movl	$1, %edi
 337      00
 338 005c B8000000 		movl	$0, %eax
 338      00
 339 0061 E8000000 		call	__printf_chk@PLT
 339      00
 340 0066 488D3500 		leaq	.LC10(%rip), %rsi
 340      000000
 341 006d BF010000 		movl	$1, %edi
 341      00
 342 0072 B8000000 		movl	$0, %eax
 342      00
 343 0077 E8000000 		call	__printf_chk@PLT
 343      00
 344 007c 488D3500 		leaq	.LC11(%rip), %rsi
 344      000000
 345 0083 BF010000 		movl	$1, %edi
 345      00
 346 0088 B8000000 		movl	$0, %eax
 346      00
GAS LISTING /tmp/ccgeDKf8.s 			page 11


 347 008d E8000000 		call	__printf_chk@PLT
 347      00
 348 0092 BFE80300 		movl	$1000, %edi
 348      00
 349 0097 E8000000 		call	malloc@PLT
 349      00
 350 009c 4989C4   		movq	%rax, %r12
 351 009f 48C70000 		movq	$0, (%rax)
 351      000000
 352 00a6 48C780E0 		movq	$0, 992(%rax)
 352      03000000 
 352      000000
 353 00b1 488D7808 		leaq	8(%rax), %rdi
 354 00b5 4883E7F8 		andq	$-8, %rdi
 355 00b9 4889C1   		movq	%rax, %rcx
 356 00bc 4829F9   		subq	%rdi, %rcx
 357 00bf 81C1E803 		addl	$1000, %ecx
 357      0000
 358 00c5 C1E903   		shrl	$3, %ecx
 359 00c8 89C9     		movl	%ecx, %ecx
 360 00ca B8000000 		movl	$0, %eax
 360      00
 361 00cf F348AB   		rep stosq
 362 00d2 BAE80300 		movl	$1000, %edx
 362      00
 363 00d7 4C89E6   		movq	%r12, %rsi
 364 00da 488D3D00 		leaq	.LC12(%rip), %rdi
 364      000000
 365 00e1 E8000000 		call	readlink@PLT
 365      00
 366 00e6 4863E8   		movslq	%eax, %rbp
 367 00e9 4889E9   		movq	%rbp, %rcx
 368 00ec 4C89E2   		movq	%r12, %rdx
 369 00ef 488D3500 		leaq	.LC13(%rip), %rsi
 369      000000
 370 00f6 BF010000 		movl	$1, %edi
 370      00
 371 00fb B8000000 		movl	$0, %eax
 371      00
 372 0100 E8000000 		call	__printf_chk@PLT
 372      00
 373 0105 488D7D01 		leaq	1(%rbp), %rdi
 374 0109 E8000000 		call	malloc@PLT
 374      00
 375 010e 4889C3   		movq	%rax, %rbx
 376 0111 4889EA   		movq	%rbp, %rdx
 377 0114 4C89E6   		movq	%r12, %rsi
 378 0117 4889C7   		movq	%rax, %rdi
 379 011a E8000000 		call	memcpy@PLT
 379      00
 380 011f 488D042B 		leaq	(%rbx,%rbp), %rax
 381 0123 C60000   		movb	$0, (%rax)
 382 0126 BA000000 		movl	$0, %edx
 382      00
 383 012b EB15     		jmp	.L16
 384              	.L17:
 385 012d 4883E801 		subq	$1, %rax
GAS LISTING /tmp/ccgeDKf8.s 			page 12


 386              	.L19:
 387 0131 80382F   		cmpb	$47, (%rax)
 388 0134 75F7     		jne	.L17
 389 0136 83C201   		addl	$1, %edx
 390 0139 83FA01   		cmpl	$1, %edx
 391 013c 7F04     		jg	.L16
 392 013e 4883E801 		subq	$1, %rax
 393              	.L16:
 394 0142 83FA01   		cmpl	$1, %edx
 395 0145 7EEA     		jle	.L19
 396 0147 C60000   		movb	$0, (%rax)
 397 014a 4C89E7   		movq	%r12, %rdi
 398 014d E8000000 		call	free@PLT
 398      00
 399 0152 4889DF   		movq	%rbx, %rdi
 400 0155 E8000000 		call	strlen@PLT
 400      00
 401 015a 4889C1   		movq	%rax, %rcx
 402 015d 4889DA   		movq	%rbx, %rdx
 403 0160 488D3500 		leaq	.LC14(%rip), %rsi
 403      000000
 404 0167 BF010000 		movl	$1, %edi
 404      00
 405 016c B8000000 		movl	$0, %eax
 405      00
 406 0171 E8000000 		call	__printf_chk@PLT
 406      00
 407 0176 BE400100 		movl	$320, %esi
 407      00
 408 017b 488D3D00 		leaq	InputSignal_f32_1kHz_15kHz(%rip), %rdi
 408      000000
 409 0182 E8000000 		call	dsp_sig_mean@PLT
 409      00
 410 0187 BE400100 		movl	$320, %esi
 410      00
 411 018c F20F1104 		movsd	%xmm0, (%rsp)
 411      24
 412 0191 488D3D00 		leaq	InputSignal_f32_1kHz_15kHz(%rip), %rdi
 412      000000
 413 0198 E8000000 		call	dsp_sig_variance@PLT
 413      00
 414 019d F20F1144 		movsd	%xmm0, 8(%rsp)
 414      2408
 415 01a3 E8000000 		call	dsp_sig_std_dev@PLT
 415      00
 416 01a8 F20F1144 		movsd	%xmm0, 16(%rsp)
 416      2410
 417 01ae 488D3500 		leaq	.LC15(%rip), %rsi
 417      000000
 418 01b5 BF010000 		movl	$1, %edi
 418      00
 419 01ba B8000000 		movl	$0, %eax
 419      00
 420 01bf E8000000 		call	__printf_chk@PLT
 420      00
 421 01c4 488D3500 		leaq	.LC16(%rip), %rsi
 421      000000
GAS LISTING /tmp/ccgeDKf8.s 			page 13


 422 01cb BF010000 		movl	$1, %edi
 422      00
 423 01d0 B8000000 		movl	$0, %eax
 423      00
 424 01d5 E8000000 		call	__printf_chk@PLT
 424      00
 425 01da F20F1004 		movsd	(%rsp), %xmm0
 425      24
 426 01df 488D3500 		leaq	.LC17(%rip), %rsi
 426      000000
 427 01e6 BF010000 		movl	$1, %edi
 427      00
 428 01eb B8010000 		movl	$1, %eax
 428      00
 429 01f0 E8000000 		call	__printf_chk@PLT
 429      00
 430 01f5 F20F1044 		movsd	8(%rsp), %xmm0
 430      2408
 431 01fb 488D3500 		leaq	.LC18(%rip), %rsi
 431      000000
 432 0202 BF010000 		movl	$1, %edi
 432      00
 433 0207 B8010000 		movl	$1, %eax
 433      00
 434 020c E8000000 		call	__printf_chk@PLT
 434      00
 435 0211 F20F1044 		movsd	16(%rsp), %xmm0
 435      2410
 436 0217 488D3500 		leaq	.LC19(%rip), %rsi
 436      000000
 437 021e BF010000 		movl	$1, %edi
 437      00
 438 0223 B8010000 		movl	$1, %eax
 438      00
 439 0228 E8000000 		call	__printf_chk@PLT
 439      00
 440 022d 488D3500 		leaq	.LC20(%rip), %rsi
 440      000000
 441 0234 BF010000 		movl	$1, %edi
 441      00
 442 0239 B8000000 		movl	$0, %eax
 442      00
 443 023e E8000000 		call	__printf_chk@PLT
 443      00
 444 0243 488D3500 		leaq	.LC21(%rip), %rsi
 444      000000
 445 024a BF010000 		movl	$1, %edi
 445      00
 446 024f B8000000 		movl	$0, %eax
 446      00
 447 0254 E8000000 		call	__printf_chk@PLT
 447      00
 448 0259 BE080000 		movl	$8, %esi
 448      00
 449 025e BF5D0100 		movl	$349, %edi
 449      00
 450 0263 E8000000 		call	calloc@PLT
GAS LISTING /tmp/ccgeDKf8.s 			page 14


 450      00
 451 0268 4889C5   		movq	%rax, %rbp
 452 026b 4889C7   		movq	%rax, %rdi
 453 026e E8000000 		call	check_mem_alloc
 453      00
 454 0273 41B81D00 		movl	$29, %r8d
 454      0000
 455 0279 488D0D00 		leaq	Impulse_response(%rip), %rcx
 455      000000
 456 0280 BA400100 		movl	$320, %edx
 456      00
 457 0285 488D3500 		leaq	InputSignal_f32_1kHz_15kHz(%rip), %rsi
 457      000000
 458 028c 4889EF   		movq	%rbp, %rdi
 459 028f E8000000 		call	dsp_convolution@PLT
 459      00
 460 0294 B9400100 		movl	$320, %ecx
 460      00
 461 0299 488D1500 		leaq	InputSignal_f32_1kHz_15kHz(%rip), %rdx
 461      000000
 462 02a0 488D3500 		leaq	.LC22(%rip), %rsi
 462      000000
 463 02a7 4889DF   		movq	%rbx, %rdi
 464 02aa E8000000 		call	create_dat_file
 464      00
 465 02af B91D0000 		movl	$29, %ecx
 465      00
 466 02b4 488D1500 		leaq	Impulse_response(%rip), %rdx
 466      000000
 467 02bb 488D3500 		leaq	.LC23(%rip), %rsi
 467      000000
 468 02c2 4889DF   		movq	%rbx, %rdi
 469 02c5 E8000000 		call	create_dat_file
 469      00
 470 02ca B95D0100 		movl	$349, %ecx
 470      00
 471 02cf 4889EA   		movq	%rbp, %rdx
 472 02d2 488D3500 		leaq	.LC24(%rip), %rsi
 472      000000
 473 02d9 4889DF   		movq	%rbx, %rdi
 474 02dc E8000000 		call	create_dat_file
 474      00
 475 02e1 BE080000 		movl	$8, %esi
 475      00
 476 02e6 BF400100 		movl	$320, %edi
 476      00
 477 02eb E8000000 		call	calloc@PLT
 477      00
 478 02f0 4889C5   		movq	%rax, %rbp
 479 02f3 4889C7   		movq	%rax, %rdi
 480 02f6 E8000000 		call	check_mem_alloc
 480      00
 481 02fb BA400100 		movl	$320, %edx
 481      00
 482 0300 488D3500 		leaq	InputSignal_f32_1kHz_15kHz(%rip), %rsi
 482      000000
 483 0307 4889EF   		movq	%rbp, %rdi
GAS LISTING /tmp/ccgeDKf8.s 			page 15


 484 030a E8000000 		call	dsp_running_sum@PLT
 484      00
 485 030f B9400100 		movl	$320, %ecx
 485      00
 486 0314 488D1500 		leaq	InputSignal_f32_1kHz_15kHz(%rip), %rdx
 486      000000
 487 031b 488D3500 		leaq	.LC25(%rip), %rsi
 487      000000
 488 0322 4889DF   		movq	%rbx, %rdi
 489 0325 E8000000 		call	create_dat_file
 489      00
 490 032a B9400100 		movl	$320, %ecx
 490      00
 491 032f 4889EA   		movq	%rbp, %rdx
 492 0332 488D3500 		leaq	.LC26(%rip), %rsi
 492      000000
 493 0339 4889DF   		movq	%rbx, %rdi
 494 033c E8000000 		call	create_dat_file
 494      00
 495 0341 4889EF   		movq	%rbp, %rdi
 496 0344 E8000000 		call	free@PLT
 496      00
 497 0349 488D3500 		leaq	.LC11(%rip), %rsi
 497      000000
 498 0350 BF010000 		movl	$1, %edi
 498      00
 499 0355 B8000000 		movl	$0, %eax
 499      00
 500 035a E8000000 		call	__printf_chk@PLT
 500      00
 501 035f 488D3500 		leaq	.LC27(%rip), %rsi
 501      000000
 502 0366 BF010000 		movl	$1, %edi
 502      00
 503 036b B8000000 		movl	$0, %eax
 503      00
 504 0370 E8000000 		call	__printf_chk@PLT
 504      00
 505 0375 488D3500 		leaq	.LC28(%rip), %rsi
 505      000000
 506 037c BF010000 		movl	$1, %edi
 506      00
 507 0381 B8000000 		movl	$0, %eax
 507      00
 508 0386 E8000000 		call	__printf_chk@PLT
 508      00
 509 038b BE080000 		movl	$8, %esi
 509      00
 510 0390 BFA00000 		movl	$160, %edi
 510      00
 511 0395 E8000000 		call	calloc@PLT
 511      00
 512 039a 4989C6   		movq	%rax, %r14
 513 039d 4889C7   		movq	%rax, %rdi
 514 03a0 E8000000 		call	check_mem_alloc
 514      00
 515 03a5 BE080000 		movl	$8, %esi
GAS LISTING /tmp/ccgeDKf8.s 			page 16


 515      00
 516 03aa BFA00000 		movl	$160, %edi
 516      00
 517 03af E8000000 		call	calloc@PLT
 517      00
 518 03b4 4989C5   		movq	%rax, %r13
 519 03b7 4889C7   		movq	%rax, %rdi
 520 03ba E8000000 		call	check_mem_alloc
 520      00
 521 03bf BE080000 		movl	$8, %esi
 521      00
 522 03c4 BF400100 		movl	$320, %edi
 522      00
 523 03c9 E8000000 		call	calloc@PLT
 523      00
 524 03ce 4889C5   		movq	%rax, %rbp
 525 03d1 4889C7   		movq	%rax, %rdi
 526 03d4 E8000000 		call	check_mem_alloc
 526      00
 527 03d9 BE080000 		movl	$8, %esi
 527      00
 528 03de BFA00000 		movl	$160, %edi
 528      00
 529 03e3 E8000000 		call	calloc@PLT
 529      00
 530 03e8 4989C7   		movq	%rax, %r15
 531 03eb 4889C7   		movq	%rax, %rdi
 532 03ee E8000000 		call	check_mem_alloc
 532      00
 533 03f3 B9400100 		movl	$320, %ecx
 533      00
 534 03f8 4C89EA   		movq	%r13, %rdx
 535 03fb 4C89F6   		movq	%r14, %rsi
 536 03fe 488D3D00 		leaq	InputSignal_f32_1kHz_15kHz(%rip), %rdi
 536      000000
 537 0405 E8000000 		call	dsp_dft@PLT
 537      00
 538 040a B9A00000 		movl	$160, %ecx
 538      00
 539 040f 4C89EA   		movq	%r13, %rdx
 540 0412 4C89F6   		movq	%r14, %rsi
 541 0415 4C89FF   		movq	%r15, %rdi
 542 0418 E8000000 		call	dsp_dft_magnitude@PLT
 542      00
 543 041d B9400100 		movl	$320, %ecx
 543      00
 544 0422 488D1500 		leaq	InputSignal_f32_1kHz_15kHz(%rip), %rdx
 544      000000
 545 0429 488D3500 		leaq	.LC29(%rip), %rsi
 545      000000
 546 0430 4889DF   		movq	%rbx, %rdi
 547 0433 E8000000 		call	create_dat_file
 547      00
 548 0438 B9A00000 		movl	$160, %ecx
 548      00
 549 043d 4C89F2   		movq	%r14, %rdx
 550 0440 488D3500 		leaq	.LC30(%rip), %rsi
GAS LISTING /tmp/ccgeDKf8.s 			page 17


 550      000000
 551 0447 4889DF   		movq	%rbx, %rdi
 552 044a E8000000 		call	create_dat_file
 552      00
 553 044f B9A00000 		movl	$160, %ecx
 553      00
 554 0454 4C89EA   		movq	%r13, %rdx
 555 0457 488D3500 		leaq	.LC31(%rip), %rsi
 555      000000
 556 045e 4889DF   		movq	%rbx, %rdi
 557 0461 E8000000 		call	create_dat_file
 557      00
 558 0466 B9400100 		movl	$320, %ecx
 558      00
 559 046b 4C89EA   		movq	%r13, %rdx
 560 046e 4C89F6   		movq	%r14, %rsi
 561 0471 4889EF   		movq	%rbp, %rdi
 562 0474 E8000000 		call	dsp_idft@PLT
 562      00
 563 0479 B9400100 		movl	$320, %ecx
 563      00
 564 047e 48896C24 		movq	%rbp, 24(%rsp)
 564      18
 565 0483 4889EA   		movq	%rbp, %rdx
 566 0486 488D3500 		leaq	.LC32(%rip), %rsi
 566      000000
 567 048d 4889DF   		movq	%rbx, %rdi
 568 0490 E8000000 		call	create_dat_file
 568      00
 569 0495 B9A00000 		movl	$160, %ecx
 569      00
 570 049a 4C89FA   		movq	%r15, %rdx
 571 049d 488D3500 		leaq	.LC33(%rip), %rsi
 571      000000
 572 04a4 4889DF   		movq	%rbx, %rdi
 573 04a7 E8000000 		call	create_dat_file
 573      00
 574 04ac 488D3500 		leaq	.LC11(%rip), %rsi
 574      000000
 575 04b3 BF010000 		movl	$1, %edi
 575      00
 576 04b8 B8000000 		movl	$0, %eax
 576      00
 577 04bd E8000000 		call	__printf_chk@PLT
 577      00
 578 04c2 BE080000 		movl	$8, %esi
 578      00
 579 04c7 BF400100 		movl	$320, %edi
 579      00
 580 04cc E8000000 		call	calloc@PLT
 580      00
 581 04d1 4989C4   		movq	%rax, %r12
 582 04d4 4889C7   		movq	%rax, %rdi
 583 04d7 E8000000 		call	check_mem_alloc
 583      00
 584 04dc BE080000 		movl	$8, %esi
 584      00
GAS LISTING /tmp/ccgeDKf8.s 			page 18


 585 04e1 BF400100 		movl	$320, %edi
 585      00
 586 04e6 E8000000 		call	calloc@PLT
 586      00
 587 04eb 4889C5   		movq	%rax, %rbp
 588 04ee 4889C7   		movq	%rax, %rdi
 589 04f1 E8000000 		call	check_mem_alloc
 589      00
 590 04f6 BE080000 		movl	$8, %esi
 590      00
 591 04fb BF800200 		movl	$640, %edi
 591      00
 592 0500 E8000000 		call	calloc@PLT
 592      00
 593 0505 48890424 		movq	%rax, (%rsp)
 594 0509 4889C7   		movq	%rax, %rdi
 595 050c E8000000 		call	check_mem_alloc
 595      00
 596 0511 B9800200 		movl	$640, %ecx
 596      00
 597 0516 4889EA   		movq	%rbp, %rdx
 598 0519 4C89E6   		movq	%r12, %rsi
 599 051c 488D3D00 		leaq	ECG_signal(%rip), %rdi
 599      000000
 600 0523 E8000000 		call	dsp_dft@PLT
 600      00
 601 0528 B9800200 		movl	$640, %ecx
 601      00
 602 052d 488D1500 		leaq	ECG_signal(%rip), %rdx
 602      000000
 603 0534 488D3500 		leaq	.LC34(%rip), %rsi
 603      000000
 604 053b 4889DF   		movq	%rbx, %rdi
 605 053e E8000000 		call	create_dat_file
 605      00
 606 0543 B9400100 		movl	$320, %ecx
 606      00
 607 0548 4C89E2   		movq	%r12, %rdx
 608 054b 488D3500 		leaq	.LC35(%rip), %rsi
 608      000000
 609 0552 4889DF   		movq	%rbx, %rdi
 610 0555 E8000000 		call	create_dat_file
 610      00
 611 055a B9400100 		movl	$320, %ecx
 611      00
 612 055f 4889EA   		movq	%rbp, %rdx
 613 0562 488D3500 		leaq	.LC36(%rip), %rsi
 613      000000
 614 0569 4889DF   		movq	%rbx, %rdi
 615 056c E8000000 		call	create_dat_file
 615      00
 616 0571 B9800200 		movl	$640, %ecx
 616      00
 617 0576 4889EA   		movq	%rbp, %rdx
 618 0579 4C89E6   		movq	%r12, %rsi
 619 057c 488B3C24 		movq	(%rsp), %rdi
 620 0580 E8000000 		call	dsp_idft@PLT
GAS LISTING /tmp/ccgeDKf8.s 			page 19


 620      00
 621 0585 B9800200 		movl	$640, %ecx
 621      00
 622 058a 488B1424 		movq	(%rsp), %rdx
 623 058e 488D3500 		leaq	.LC37(%rip), %rsi
 623      000000
 624 0595 4889DF   		movq	%rbx, %rdi
 625 0598 E8000000 		call	create_dat_file
 625      00
 626 059d 488D3500 		leaq	.LC38(%rip), %rsi
 626      000000
 627 05a4 BF010000 		movl	$1, %edi
 627      00
 628 05a9 B8000000 		movl	$0, %eax
 628      00
 629 05ae E8000000 		call	__printf_chk@PLT
 629      00
 630 05b3 BE080000 		movl	$8, %esi
 630      00
 631 05b8 BF400100 		movl	$320, %edi
 631      00
 632 05bd E8000000 		call	calloc@PLT
 632      00
 633 05c2 48894424 		movq	%rax, 8(%rsp)
 633      08
 634 05c7 4889C7   		movq	%rax, %rdi
 635 05ca E8000000 		call	check_mem_alloc
 635      00
 636 05cf BE080000 		movl	$8, %esi
 636      00
 637 05d4 BF400100 		movl	$320, %edi
 637      00
 638 05d9 E8000000 		call	calloc@PLT
 638      00
 639 05de 48894424 		movq	%rax, 16(%rsp)
 639      10
 640 05e3 4889C7   		movq	%rax, %rdi
 641 05e6 E8000000 		call	check_mem_alloc
 641      00
 642 05eb 41B84001 		movl	$320, %r8d
 642      0000
 643 05f1 4889E9   		movq	%rbp, %rcx
 644 05f4 4C89E2   		movq	%r12, %rdx
 645 05f7 488B7424 		movq	16(%rsp), %rsi
 645      10
 646 05fc 488B7C24 		movq	8(%rsp), %rdi
 646      08
 647 0601 E8000000 		call	dsp_rect2polar@PLT
 647      00
 648 0606 B9400100 		movl	$320, %ecx
 648      00
 649 060b 488B5424 		movq	8(%rsp), %rdx
 649      08
 650 0610 488D3500 		leaq	.LC39(%rip), %rsi
 650      000000
 651 0617 4889DF   		movq	%rbx, %rdi
 652 061a E8000000 		call	create_dat_file
GAS LISTING /tmp/ccgeDKf8.s 			page 20


 652      00
 653 061f B9400100 		movl	$320, %ecx
 653      00
 654 0624 488B5424 		movq	16(%rsp), %rdx
 654      10
 655 0629 488D3500 		leaq	.LC40(%rip), %rsi
 655      000000
 656 0630 4889DF   		movq	%rbx, %rdi
 657 0633 E8000000 		call	create_dat_file
 657      00
 658 0638 488D3500 		leaq	.LC11(%rip), %rsi
 658      000000
 659 063f BF010000 		movl	$1, %edi
 659      00
 660 0644 B8000000 		movl	$0, %eax
 660      00
 661 0649 E8000000 		call	__printf_chk@PLT
 661      00
 662 064e 4C89F7   		movq	%r14, %rdi
 663 0651 E8000000 		call	free@PLT
 663      00
 664 0656 4C89EF   		movq	%r13, %rdi
 665 0659 E8000000 		call	free@PLT
 665      00
 666 065e 4C89FF   		movq	%r15, %rdi
 667 0661 E8000000 		call	free@PLT
 667      00
 668 0666 488B7C24 		movq	24(%rsp), %rdi
 668      18
 669 066b E8000000 		call	free@PLT
 669      00
 670 0670 4C89E7   		movq	%r12, %rdi
 671 0673 E8000000 		call	free@PLT
 671      00
 672 0678 4889EF   		movq	%rbp, %rdi
 673 067b E8000000 		call	free@PLT
 673      00
 674 0680 488B3C24 		movq	(%rsp), %rdi
 675 0684 E8000000 		call	free@PLT
 675      00
 676 0689 488B7C24 		movq	16(%rsp), %rdi
 676      10
 677 068e E8000000 		call	free@PLT
 677      00
 678 0693 488B7C24 		movq	8(%rsp), %rdi
 678      08
 679 0698 E8000000 		call	free@PLT
 679      00
 680 069d B8000000 		movl	$0, %eax
 680      00
 681 06a2 4883C428 		addq	$40, %rsp
 682              		.cfi_def_cfa_offset 56
 683 06a6 5B       		popq	%rbx
 684              		.cfi_def_cfa_offset 48
 685 06a7 5D       		popq	%rbp
 686              		.cfi_def_cfa_offset 40
 687 06a8 415C     		popq	%r12
GAS LISTING /tmp/ccgeDKf8.s 			page 21


 688              		.cfi_def_cfa_offset 32
 689 06aa 415D     		popq	%r13
 690              		.cfi_def_cfa_offset 24
 691 06ac 415E     		popq	%r14
 692              		.cfi_def_cfa_offset 16
 693 06ae 415F     		popq	%r15
 694              		.cfi_def_cfa_offset 8
 695 06b0 C3       		ret
 696              		.cfi_endproc
 697              	.LFE36:
 699              		.ident	"GCC: (Ubuntu 7.5.0-3ubuntu1~18.04) 7.5.0"
 700              		.section	.note.GNU-stack,"",@progbits
GAS LISTING /tmp/ccgeDKf8.s 			page 22


DEFINED SYMBOLS
                            *ABS*:0000000000000000 main.c
     /tmp/ccgeDKf8.s:12     .text.check_mem_alloc:0000000000000000 check_mem_alloc
     /tmp/ccgeDKf8.s:43     .text.prepare_path:0000000000000000 prepare_path
     /tmp/ccgeDKf8.s:108    .text.create_dat_file:0000000000000000 create_dat_file
     /tmp/ccgeDKf8.s:301    .text.main:0000000000000000 main
     /tmp/ccgeDKf8.s:8      .rodata.check_mem_alloc.str1.8:0000000000000000 .LC1
     /tmp/ccgeDKf8.s:4      .rodata.check_mem_alloc.str1.1:0000000000000000 .LC0
     /tmp/ccgeDKf8.s:94     .rodata.create_dat_file.str1.1:0000000000000000 .LC2
     /tmp/ccgeDKf8.s:98     .rodata.create_dat_file.str1.8:0000000000000000 .LC3
     /tmp/ccgeDKf8.s:101    .rodata.create_dat_file.str1.1:0000000000000003 .LC4
     /tmp/ccgeDKf8.s:103    .rodata.create_dat_file.str1.1:0000000000000007 .LC5
     /tmp/ccgeDKf8.s:199    .rodata.main.str1.1:0000000000000000 .LC6
     /tmp/ccgeDKf8.s:201    .rodata.main.str1.1:0000000000000015 .LC7
     /tmp/ccgeDKf8.s:203    .rodata.main.str1.1:000000000000002a .LC8
     /tmp/ccgeDKf8.s:207    .rodata.main.str1.8:0000000000000000 .LC9
     /tmp/ccgeDKf8.s:210    .rodata.main.str1.8:0000000000000040 .LC10
     /tmp/ccgeDKf8.s:213    .rodata.main.str1.1:0000000000000044 .LC11
     /tmp/ccgeDKf8.s:215    .rodata.main.str1.1:0000000000000046 .LC12
     /tmp/ccgeDKf8.s:217    .rodata.main.str1.1:0000000000000055 .LC13
     /tmp/ccgeDKf8.s:221    .rodata.main.str1.8:00000000000000a8 .LC14
     /tmp/ccgeDKf8.s:224    .rodata.main.str1.8:00000000000000d0 .LC15
     /tmp/ccgeDKf8.s:227    .rodata.main.str1.8:0000000000000110 .LC16
     /tmp/ccgeDKf8.s:230    .rodata.main.str1.1:0000000000000072 .LC17
     /tmp/ccgeDKf8.s:232    .rodata.main.str1.1:0000000000000086 .LC18
     /tmp/ccgeDKf8.s:234    .rodata.main.str1.1:000000000000009a .LC19
     /tmp/ccgeDKf8.s:236    .rodata.main.str1.1:00000000000000af .LC20
     /tmp/ccgeDKf8.s:238    .rodata.main.str1.1:00000000000000c1 .LC21
     /tmp/ccgeDKf8.s:242    .rodata.main.str1.8:0000000000000150 .LC22
     /tmp/ccgeDKf8.s:245    .rodata.main.str1.8:0000000000000178 .LC23
     /tmp/ccgeDKf8.s:248    .rodata.main.str1.8:00000000000001a8 .LC24
     /tmp/ccgeDKf8.s:251    .rodata.main.str1.8:00000000000001d0 .LC25
     /tmp/ccgeDKf8.s:254    .rodata.main.str1.8:00000000000001f8 .LC26
     /tmp/ccgeDKf8.s:257    .rodata.main.str1.8:0000000000000220 .LC27
     /tmp/ccgeDKf8.s:260    .rodata.main.str1.8:0000000000000248 .LC28
     /tmp/ccgeDKf8.s:263    .rodata.main.str1.1:00000000000000d3 .LC29
     /tmp/ccgeDKf8.s:265    .rodata.main.str1.1:00000000000000f0 .LC30
     /tmp/ccgeDKf8.s:267    .rodata.main.str1.1:000000000000010b .LC31
     /tmp/ccgeDKf8.s:271    .rodata.main.str1.8:0000000000000270 .LC32
     /tmp/ccgeDKf8.s:274    .rodata.main.str1.1:0000000000000126 .LC33
     /tmp/ccgeDKf8.s:278    .rodata.main.str1.8:0000000000000290 .LC34
     /tmp/ccgeDKf8.s:281    .rodata.main.str1.8:00000000000002b8 .LC35
     /tmp/ccgeDKf8.s:284    .rodata.main.str1.8:00000000000002d8 .LC36
     /tmp/ccgeDKf8.s:287    .rodata.main.str1.8:00000000000002f8 .LC37
     /tmp/ccgeDKf8.s:290    .rodata.main.str1.8:0000000000000320 .LC38
     /tmp/ccgeDKf8.s:293    .rodata.main.str1.8:0000000000000340 .LC39
     /tmp/ccgeDKf8.s:296    .rodata.main.str1.8:0000000000000360 .LC40

UNDEFINED SYMBOLS
_GLOBAL_OFFSET_TABLE_
__printf_chk
stderr
__fprintf_chk
exit
strlen
malloc
strcpy
GAS LISTING /tmp/ccgeDKf8.s 			page 23


fopen
stdout
fclose
free
readlink
memcpy
InputSignal_f32_1kHz_15kHz
dsp_sig_mean
dsp_sig_variance
dsp_sig_std_dev
calloc
Impulse_response
dsp_convolution
dsp_running_sum
dsp_dft
dsp_dft_magnitude
dsp_idft
ECG_signal
dsp_rect2polar
