GAS LISTING /tmp/ccIaWb1g.s 			page 1


   1              		.file	"main.c"
   2              		.text
   3              		.section	.rodata.create_dat_file.str1.1,"aMS",@progbits,1
   4              	.LC0:
   5 0000 772B00   		.string	"w+"
   6              	.LC1:
   7 0003 0A256600 		.string	"\n%f"
   8              		.section	.text.create_dat_file,"ax",@progbits
   9              		.globl	create_dat_file
  11              	create_dat_file:
  12              	.LFB37:
  13              		.cfi_startproc
  14 0000 4155     		pushq	%r13
  15              		.cfi_def_cfa_offset 16
  16              		.cfi_offset 13, -16
  17 0002 4154     		pushq	%r12
  18              		.cfi_def_cfa_offset 24
  19              		.cfi_offset 12, -24
  20 0004 55       		pushq	%rbp
  21              		.cfi_def_cfa_offset 32
  22              		.cfi_offset 6, -32
  23 0005 53       		pushq	%rbx
  24              		.cfi_def_cfa_offset 40
  25              		.cfi_offset 3, -40
  26 0006 4883EC08 		subq	$8, %rsp
  27              		.cfi_def_cfa_offset 48
  28 000a 4989F5   		movq	%rsi, %r13
  29 000d 4889D5   		movq	%rdx, %rbp
  30 0010 488D3500 		leaq	.LC0(%rip), %rsi
  30      000000
  31 0017 E8000000 		call	fopen@PLT
  31      00
  32 001c 4885C0   		testq	%rax, %rax
  33 001f 7448     		je	.L5
  34 0021 4989C4   		movq	%rax, %r12
  35 0024 BB000000 		movl	$0, %ebx
  35      00
  36 0029 EB24     		jmp	.L3
  37              	.L4:
  38 002b F2410F10 		movsd	0(%r13,%rbx,8), %xmm0
  38      44DD00
  39 0032 488D1500 		leaq	.LC1(%rip), %rdx
  39      000000
  40 0039 BE010000 		movl	$1, %esi
  40      00
  41 003e 4C89E7   		movq	%r12, %rdi
  42 0041 B8010000 		movl	$1, %eax
  42      00
  43 0046 E8000000 		call	__fprintf_chk@PLT
  43      00
  44 004b 4883C301 		addq	$1, %rbx
  45              	.L3:
  46 004f 4839EB   		cmpq	%rbp, %rbx
  47 0052 72D7     		jb	.L4
  48 0054 4C89E7   		movq	%r12, %rdi
  49 0057 E8000000 		call	fclose@PLT
  49      00
GAS LISTING /tmp/ccIaWb1g.s 			page 2


  50 005c 89E8     		movl	%ebp, %eax
  51              	.L1:
  52 005e 4883C408 		addq	$8, %rsp
  53              		.cfi_remember_state
  54              		.cfi_def_cfa_offset 40
  55 0062 5B       		popq	%rbx
  56              		.cfi_def_cfa_offset 32
  57 0063 5D       		popq	%rbp
  58              		.cfi_def_cfa_offset 24
  59 0064 415C     		popq	%r12
  60              		.cfi_def_cfa_offset 16
  61 0066 415D     		popq	%r13
  62              		.cfi_def_cfa_offset 8
  63 0068 C3       		ret
  64              	.L5:
  65              		.cfi_restore_state
  66 0069 B8000000 		movl	$0, %eax
  66      00
  67 006e EBEE     		jmp	.L1
  68              		.cfi_endproc
  69              	.LFE37:
  71              		.section	.rodata.main.str1.1,"aMS",@progbits,1
  72              	.LC2:
  73 0000 2F70726F 		.string	"/proc/self/exe"
  73      632F7365 
  73      6C662F65 
  73      786500
  74              		.section	.rodata.main.str1.8,"aMS",@progbits,1
  75              		.align 8
  76              	.LC3:
  77 0000 46756C6C 		.string	"Full path of executable:\t%s (len: %d)\n"
  77      20706174 
  77      68206F66 
  77      20657865 
  77      63757461 
  78 0027 00       		.align 8
  79              	.LC4:
  80 0028 4162736F 		.string	"Absolute path of executable is not defined\n"
  80      6C757465 
  80      20706174 
  80      68206F66 
  80      20657865 
  81 0054 00000000 		.align 8
  82              	.LC5:
  83 0058 4162736F 		.string	"Absolute path of executable:\t%s (len: %d)\n"
  83      6C757465 
  83      20706174 
  83      68206F66 
  83      20657865 
  84              		.section	.rodata.main.str1.1
  85              	.LC6:
  86 000f 54657374 		.string	"Testing DSP library\n"
  86      696E6720 
  86      44535020 
  86      6C696272 
  86      6172790A 
  87              	.LC7:
GAS LISTING /tmp/ccIaWb1g.s 			page 3


  88 0024 3D3D3D3D 		.string	"===================\n"
  88      3D3D3D3D 
  88      3D3D3D3D 
  88      3D3D3D3D 
  88      3D3D3D0A 
  89              	.LC8:
  90 0039 44657665 		.string	"Developer: Istvan Milak\n\n"
  90      6C6F7065 
  90      723A2049 
  90      73747661 
  90      6E204D69 
  91              		.section	.rodata.main.str1.8
  92 0083 00000000 		.align 8
  92      00
  93              	.LC9:
  94 0088 54686520 		.string	"The software generate the calculation result *.dat files\n"
  94      736F6674 
  94      77617265 
  94      2067656E 
  94      65726174 
  95 00c2 00000000 		.align 8
  95      0000
  96              	.LC10:
  97 00c8 596F7520 		.string	"You can find the correspondig dat files in test/dat/* dirs with html output and gnuplot s
  97      63616E20 
  97      66696E64 
  97      20746865 
  97      20636F72 
  98              		.section	.rodata.main.str1.1
  99              	.LC11:
 100 0053 0A00     		.string	"\n"
 101              		.section	.rodata.main.str1.8
 102 0129 00000000 		.align 8
 102      000000
 103              	.LC12:
 104 0130 53746174 		.string	"Statistic of Input Signal (1kHz and 15 kHz sine components)\n"
 104      69737469 
 104      63206F66 
 104      20496E70 
 104      75742053 
 105 016d 000000   		.align 8
 106              	.LC13:
 107 0170 2D2D2D2D 		.string	"-----------------------------------------------------------\n"
 107      2D2D2D2D 
 107      2D2D2D2D 
 107      2D2D2D2D 
 107      2D2D2D2D 
 108              		.section	.rodata.main.str1.1
 109              	.LC14:
 110 0055 6D65616E 		.string	"mean:          %lf\n"
 110      3A202020 
 110      20202020 
 110      20202025 
 110      6C660A00 
 111              	.LC15:
 112 0069 76617269 		.string	"variance:      %lf\n"
 112      616E6365 
GAS LISTING /tmp/ccIaWb1g.s 			page 4


 112      3A202020 
 112      20202025 
 112      6C660A00 
 113              	.LC16:
 114 007d 7374616E 		.string	"standard dev:  %lf\n\n"
 114      64617264 
 114      20646576 
 114      3A202025 
 114      6C660A0A 
 115              	.LC17:
 116 0092 436F6E76 		.string	"Convolution test\n"
 116      6F6C7574 
 116      696F6E20 
 116      74657374 
 116      0A00
 117              	.LC18:
 118 00a4 2D2D2D2D 		.string	"----------------\n"
 118      2D2D2D2D 
 118      2D2D2D2D 
 118      2D2D2D2D 
 118      0A00
 119              		.section	.rodata.main.str1.8
 120 01ad 000000   		.align 8
 121              	.LC19:
 122 01b0 2E2E2F64 		.string	"../dat/convolution/conv_input_signal.dat"
 122      61742F63 
 122      6F6E766F 
 122      6C757469 
 122      6F6E2F63 
 123 01d9 00000000 		.align 8
 123      000000
 124              	.LC20:
 125 01e0 416E2065 		.string	"An error occured in ../dat/convolution/conv_input_signal.dat file creation\n"
 125      72726F72 
 125      206F6363 
 125      75726564 
 125      20696E20 
 126 022c 00000000 		.align 8
 127              	.LC21:
 128 0230 2E2E2F64 		.string	"../dat/convolution/conv_input_signal.dat created\n"
 128      61742F63 
 128      6F6E766F 
 128      6C757469 
 128      6F6E2F63 
 129 0262 00000000 		.align 8
 129      0000
 130              	.LC22:
 131 0268 2E2E2F64 		.string	"../dat/convolution/conv_impulse_response.dat"
 131      61742F63 
 131      6F6E766F 
 131      6C757469 
 131      6F6E2F63 
 132 0295 000000   		.align 8
 133              	.LC23:
 134 0298 416E2065 		.string	"An error occured in ../dat/convolution/conv_impulse_response.dat file creation\n"
 134      72726F72 
 134      206F6363 
GAS LISTING /tmp/ccIaWb1g.s 			page 5


 134      75726564 
 134      20696E20 
 135              		.align 8
 136              	.LC24:
 137 02e8 2E2E2F64 		.string	"../dat/convolution/conv_impulse_response.dat created\n"
 137      61742F63 
 137      6F6E766F 
 137      6C757469 
 137      6F6E2F63 
 138 031e 0000     		.align 8
 139              	.LC25:
 140 0320 2E2E2F64 		.string	"../dat/convolution/conv_output_signal.dat"
 140      61742F63 
 140      6F6E766F 
 140      6C757469 
 140      6F6E2F63 
 141 034a 00000000 		.align 8
 141      0000
 142              	.LC26:
 143 0350 416E2065 		.string	"An error occured in ../dat/convolution/conv_output_signal.dat file creation\n"
 143      72726F72 
 143      206F6363 
 143      75726564 
 143      20696E20 
 144 039d 000000   		.align 8
 145              	.LC27:
 146 03a0 2E2E2F64 		.string	"../dat/convolution/conv_output_signal.dat created\n"
 146      61742F63 
 146      6F6E766F 
 146      6C757469 
 146      6F6E2F63 
 147 03d3 00000000 		.align 8
 147      00
 148              	.LC28:
 149 03d8 2E2E2F64 		.string	"../dat/convolution/rsum_input_signal.dat"
 149      61742F63 
 149      6F6E766F 
 149      6C757469 
 149      6F6E2F72 
 150 0401 00000000 		.align 8
 150      000000
 151              	.LC29:
 152 0408 416E2065 		.string	"An error occured in ../dat/convolution/rsum_input_signal.dat file creation\n"
 152      72726F72 
 152      206F6363 
 152      75726564 
 152      20696E20 
 153 0454 00000000 		.align 8
 154              	.LC30:
 155 0458 2E2E2F64 		.string	"../dat/convolution/rsum_input_signal.dat created\n"
 155      61742F63 
 155      6F6E766F 
 155      6C757469 
 155      6F6E2F72 
 156 048a 00000000 		.align 8
 156      0000
 157              	.LC31:
GAS LISTING /tmp/ccIaWb1g.s 			page 6


 158 0490 2E2E2F64 		.string	"../dat/convolution/rsum_output_signal.dat"
 158      61742F63 
 158      6F6E766F 
 158      6C757469 
 158      6F6E2F72 
 159 04ba 00000000 		.align 8
 159      0000
 160              	.LC32:
 161 04c0 416E2065 		.string	"An error occured in ../dat/convolution/rsum_output_signal.dat file creation\n"
 161      72726F72 
 161      206F6363 
 161      75726564 
 161      20696E20 
 162 050d 000000   		.align 8
 163              	.LC33:
 164 0510 2E2E2F64 		.string	"../dat/convolution/rsum_output_signal.dat created\n"
 164      61742F63 
 164      6F6E766F 
 164      6C757469 
 164      6F6E2F72 
 165 0543 00000000 		.align 8
 165      00
 166              	.LC34:
 167 0548 44697363 		.string	"Discrete Fourier transformation test\n"
 167      72657465 
 167      20466F75 
 167      72696572 
 167      20747261 
 168 056e 0000     		.align 8
 169              	.LC35:
 170 0570 2D2D2D2D 		.string	"------------------------------------\n"
 170      2D2D2D2D 
 170      2D2D2D2D 
 170      2D2D2D2D 
 170      2D2D2D2D 
 171 0596 0000     		.align 8
 172              	.LC36:
 173 0598 2E2E2F64 		.string	"../dat/dft/dft_input_signal.dat"
 173      61742F64 
 173      66742F64 
 173      66745F69 
 173      6E707574 
 174              		.align 8
 175              	.LC37:
 176 05b8 416E2065 		.string	"An error occured in ../dat/dft/dft_input_signal.dat file creation\n"
 176      72726F72 
 176      206F6363 
 176      75726564 
 176      20696E20 
 177 05fb 00000000 		.align 8
 177      00
 178              	.LC38:
 179 0600 2E2E2F64 		.string	"../dat/dft/dft_input_signal.dat created\n"
 179      61742F64 
 179      66742F64 
 179      66745F69 
 179      6E707574 
GAS LISTING /tmp/ccIaWb1g.s 			page 7


 180              		.section	.rodata.main.str1.1
 181              	.LC39:
 182 00b6 2E2E2F64 		.string	"../dat/dft/dft_output_rex.dat"
 182      61742F64 
 182      66742F64 
 182      66745F6F 
 182      75747075 
 183              		.section	.rodata.main.str1.8
 184 0629 00000000 		.align 8
 184      000000
 185              	.LC40:
 186 0630 416E2065 		.string	"An error occured in ../dat/dft/dft_output_rex.dat file creation\n"
 186      72726F72 
 186      206F6363 
 186      75726564 
 186      20696E20 
 187 0671 00000000 		.align 8
 187      000000
 188              	.LC41:
 189 0678 2E2E2F64 		.string	"../dat/dft/dft_output_rex.dat created\n"
 189      61742F64 
 189      66742F64 
 189      66745F6F 
 189      75747075 
 190              		.section	.rodata.main.str1.1
 191              	.LC42:
 192 00d4 2E2E2F64 		.string	"../dat/dft/dft_output_imx.dat"
 192      61742F64 
 192      66742F64 
 192      66745F6F 
 192      75747075 
 193              		.section	.rodata.main.str1.8
 194 069f 00       		.align 8
 195              	.LC43:
 196 06a0 416E2065 		.string	"An error occured in ../dat/dft/dft_output_imx.dat file creation\n"
 196      72726F72 
 196      206F6363 
 196      75726564 
 196      20696E20 
 197 06e1 00000000 		.align 8
 197      000000
 198              	.LC44:
 199 06e8 2E2E2F64 		.string	"../dat/dft/dft_output_imx.dat created\n"
 199      61742F64 
 199      66742F64 
 199      66745F6F 
 199      75747075 
 200              		.section	.text.main,"ax",@progbits
 201              		.globl	main
 203              	main:
 204              	.LFB36:
 205              		.cfi_startproc
 206 0000 4154     		pushq	%r12
 207              		.cfi_def_cfa_offset 16
 208              		.cfi_offset 12, -16
 209 0002 55       		pushq	%rbp
 210              		.cfi_def_cfa_offset 24
GAS LISTING /tmp/ccIaWb1g.s 			page 8


 211              		.cfi_offset 6, -24
 212 0003 53       		pushq	%rbx
 213              		.cfi_def_cfa_offset 32
 214              		.cfi_offset 3, -32
 215 0004 4881EC10 		subq	$7952, %rsp
 215      1F0000
 216              		.cfi_def_cfa_offset 7984
 217 000b 64488B04 		movq	%fs:40, %rax
 217      25280000 
 217      00
 218 0014 48898424 		movq	%rax, 7944(%rsp)
 218      081F0000 
 219 001c 31C0     		xorl	%eax, %eax
 220 001e BFE80300 		movl	$1000, %edi
 220      00
 221 0023 E8000000 		call	malloc@PLT
 221      00
 222 0028 4889C3   		movq	%rax, %rbx
 223 002b 48C70000 		movq	$0, (%rax)
 223      000000
 224 0032 48C780E0 		movq	$0, 992(%rax)
 224      03000000 
 224      000000
 225 003d 488D7808 		leaq	8(%rax), %rdi
 226 0041 4883E7F8 		andq	$-8, %rdi
 227 0045 4889C1   		movq	%rax, %rcx
 228 0048 4829F9   		subq	%rdi, %rcx
 229 004b 81C1E803 		addl	$1000, %ecx
 229      0000
 230 0051 C1E903   		shrl	$3, %ecx
 231 0054 89C9     		movl	%ecx, %ecx
 232 0056 B8000000 		movl	$0, %eax
 232      00
 233 005b F348AB   		rep stosq
 234 005e BAE80300 		movl	$1000, %edx
 234      00
 235 0063 4889DE   		movq	%rbx, %rsi
 236 0066 488D3D00 		leaq	.LC2(%rip), %rdi
 236      000000
 237 006d E8000000 		call	readlink@PLT
 237      00
 238 0072 4863E8   		movslq	%eax, %rbp
 239 0075 4889E9   		movq	%rbp, %rcx
 240 0078 4889DA   		movq	%rbx, %rdx
 241 007b 488D3500 		leaq	.LC3(%rip), %rsi
 241      000000
 242 0082 BF010000 		movl	$1, %edi
 242      00
 243 0087 B8000000 		movl	$0, %eax
 243      00
 244 008c E8000000 		call	__printf_chk@PLT
 244      00
 245 0091 4883C501 		addq	$1, %rbp
 246 0095 4889EF   		movq	%rbp, %rdi
 247 0098 E8000000 		call	malloc@PLT
 247      00
 248 009d 4989C4   		movq	%rax, %r12
GAS LISTING /tmp/ccIaWb1g.s 			page 9


 249 00a0 4889EA   		movq	%rbp, %rdx
 250 00a3 BE000000 		movl	$0, %esi
 250      00
 251 00a8 4889C7   		movq	%rax, %rdi
 252 00ab E8000000 		call	memset@PLT
 252      00
 253 00b0 4C89E6   		movq	%r12, %rsi
 254 00b3 4889DF   		movq	%rbx, %rdi
 255 00b6 E8000000 		call	realpath@PLT
 255      00
 256 00bb 4889C5   		movq	%rax, %rbp
 257 00be 4889DF   		movq	%rbx, %rdi
 258 00c1 E8000000 		call	free@PLT
 258      00
 259 00c6 4885ED   		testq	%rbp, %rbp
 260 00c9 0F84E403 		je	.L20
 260      0000
 261 00cf 4C89E7   		movq	%r12, %rdi
 262 00d2 E8000000 		call	strlen@PLT
 262      00
 263 00d7 4889C1   		movq	%rax, %rcx
 264 00da 4C89E2   		movq	%r12, %rdx
 265 00dd 488D3500 		leaq	.LC5(%rip), %rsi
 265      000000
 266 00e4 BF010000 		movl	$1, %edi
 266      00
 267 00e9 B8000000 		movl	$0, %eax
 267      00
 268 00ee E8000000 		call	__printf_chk@PLT
 268      00
 269 00f3 488D3500 		leaq	.LC6(%rip), %rsi
 269      000000
 270 00fa BF010000 		movl	$1, %edi
 270      00
 271 00ff B8000000 		movl	$0, %eax
 271      00
 272 0104 E8000000 		call	__printf_chk@PLT
 272      00
 273 0109 488D3500 		leaq	.LC7(%rip), %rsi
 273      000000
 274 0110 BF010000 		movl	$1, %edi
 274      00
 275 0115 B8000000 		movl	$0, %eax
 275      00
 276 011a E8000000 		call	__printf_chk@PLT
 276      00
 277 011f 488D3500 		leaq	.LC8(%rip), %rsi
 277      000000
 278 0126 BF010000 		movl	$1, %edi
 278      00
 279 012b B8000000 		movl	$0, %eax
 279      00
 280 0130 E8000000 		call	__printf_chk@PLT
 280      00
 281 0135 488D3500 		leaq	.LC9(%rip), %rsi
 281      000000
 282 013c BF010000 		movl	$1, %edi
GAS LISTING /tmp/ccIaWb1g.s 			page 10


 282      00
 283 0141 B8000000 		movl	$0, %eax
 283      00
 284 0146 E8000000 		call	__printf_chk@PLT
 284      00
 285 014b 488D3500 		leaq	.LC10(%rip), %rsi
 285      000000
 286 0152 BF010000 		movl	$1, %edi
 286      00
 287 0157 B8000000 		movl	$0, %eax
 287      00
 288 015c E8000000 		call	__printf_chk@PLT
 288      00
 289 0161 488D3500 		leaq	.LC11(%rip), %rsi
 289      000000
 290 0168 BF010000 		movl	$1, %edi
 290      00
 291 016d B8000000 		movl	$0, %eax
 291      00
 292 0172 E8000000 		call	__printf_chk@PLT
 292      00
 293 0177 BE400100 		movl	$320, %esi
 293      00
 294 017c 488D3D00 		leaq	InputSignal_f32_1kHz_15kHz(%rip), %rdi
 294      000000
 295 0183 E8000000 		call	dsp_sig_mean@PLT
 295      00
 296 0188 BE400100 		movl	$320, %esi
 296      00
 297 018d F20F1144 		movsd	%xmm0, 8(%rsp)
 297      2408
 298 0193 488D3D00 		leaq	InputSignal_f32_1kHz_15kHz(%rip), %rdi
 298      000000
 299 019a E8000000 		call	dsp_sig_variance@PLT
 299      00
 300 019f F20F1144 		movsd	%xmm0, 16(%rsp)
 300      2410
 301 01a5 E8000000 		call	dsp_sig_std_dev@PLT
 301      00
 302 01aa F20F1144 		movsd	%xmm0, 24(%rsp)
 302      2418
 303 01b0 488D3500 		leaq	.LC12(%rip), %rsi
 303      000000
 304 01b7 BF010000 		movl	$1, %edi
 304      00
 305 01bc B8000000 		movl	$0, %eax
 305      00
 306 01c1 E8000000 		call	__printf_chk@PLT
 306      00
 307 01c6 488D3500 		leaq	.LC13(%rip), %rsi
 307      000000
 308 01cd BF010000 		movl	$1, %edi
 308      00
 309 01d2 B8000000 		movl	$0, %eax
 309      00
 310 01d7 E8000000 		call	__printf_chk@PLT
 310      00
GAS LISTING /tmp/ccIaWb1g.s 			page 11


 311 01dc F20F1044 		movsd	8(%rsp), %xmm0
 311      2408
 312 01e2 488D3500 		leaq	.LC14(%rip), %rsi
 312      000000
 313 01e9 BF010000 		movl	$1, %edi
 313      00
 314 01ee B8010000 		movl	$1, %eax
 314      00
 315 01f3 E8000000 		call	__printf_chk@PLT
 315      00
 316 01f8 F20F1044 		movsd	16(%rsp), %xmm0
 316      2410
 317 01fe 488D3500 		leaq	.LC15(%rip), %rsi
 317      000000
 318 0205 BF010000 		movl	$1, %edi
 318      00
 319 020a B8010000 		movl	$1, %eax
 319      00
 320 020f E8000000 		call	__printf_chk@PLT
 320      00
 321 0214 F20F1044 		movsd	24(%rsp), %xmm0
 321      2418
 322 021a 488D3500 		leaq	.LC16(%rip), %rsi
 322      000000
 323 0221 BF010000 		movl	$1, %edi
 323      00
 324 0226 B8010000 		movl	$1, %eax
 324      00
 325 022b E8000000 		call	__printf_chk@PLT
 325      00
 326 0230 488D3500 		leaq	.LC17(%rip), %rsi
 326      000000
 327 0237 BF010000 		movl	$1, %edi
 327      00
 328 023c B8000000 		movl	$0, %eax
 328      00
 329 0241 E8000000 		call	__printf_chk@PLT
 329      00
 330 0246 488D3500 		leaq	.LC18(%rip), %rsi
 330      000000
 331 024d BF010000 		movl	$1, %edi
 331      00
 332 0252 B8000000 		movl	$0, %eax
 332      00
 333 0257 E8000000 		call	__printf_chk@PLT
 333      00
 334 025c 488DBC24 		leaq	5152(%rsp), %rdi
 334      20140000 
 335 0264 41B81D00 		movl	$29, %r8d
 335      0000
 336 026a 488D0D00 		leaq	Impulse_response(%rip), %rcx
 336      000000
 337 0271 BA400100 		movl	$320, %edx
 337      00
 338 0276 488D3500 		leaq	InputSignal_f32_1kHz_15kHz(%rip), %rsi
 338      000000
 339 027d E8000000 		call	dsp_convolution@PLT
GAS LISTING /tmp/ccIaWb1g.s 			page 12


 339      00
 340 0282 BA400100 		movl	$320, %edx
 340      00
 341 0287 488D3500 		leaq	InputSignal_f32_1kHz_15kHz(%rip), %rsi
 341      000000
 342 028e 488D3D00 		leaq	.LC19(%rip), %rdi
 342      000000
 343 0295 E8000000 		call	create_dat_file
 343      00
 344 029a 85C0     		testl	%eax, %eax
 345 029c 0F843D02 		je	.L21
 345      0000
 346 02a2 488D3500 		leaq	.LC21(%rip), %rsi
 346      000000
 347 02a9 BF010000 		movl	$1, %edi
 347      00
 348 02ae B8000000 		movl	$0, %eax
 348      00
 349 02b3 E8000000 		call	__printf_chk@PLT
 349      00
 350 02b8 BA1D0000 		movl	$29, %edx
 350      00
 351 02bd 488D3500 		leaq	Impulse_response(%rip), %rsi
 351      000000
 352 02c4 488D3D00 		leaq	.LC22(%rip), %rdi
 352      000000
 353 02cb E8000000 		call	create_dat_file
 353      00
 354 02d0 85C0     		testl	%eax, %eax
 355 02d2 0F844702 		je	.L22
 355      0000
 356 02d8 488D3500 		leaq	.LC24(%rip), %rsi
 356      000000
 357 02df BF010000 		movl	$1, %edi
 357      00
 358 02e4 B8000000 		movl	$0, %eax
 358      00
 359 02e9 E8000000 		call	__printf_chk@PLT
 359      00
 360 02ee 488DB424 		leaq	5152(%rsp), %rsi
 360      20140000 
 361 02f6 BA5D0100 		movl	$349, %edx
 361      00
 362 02fb 488D3D00 		leaq	.LC25(%rip), %rdi
 362      000000
 363 0302 E8000000 		call	create_dat_file
 363      00
 364 0307 85C0     		testl	%eax, %eax
 365 0309 0F842F02 		je	.L23
 365      0000
 366 030f 488D3500 		leaq	.LC27(%rip), %rsi
 366      000000
 367 0316 BF010000 		movl	$1, %edi
 367      00
 368 031b B8000000 		movl	$0, %eax
 368      00
 369 0320 E8000000 		call	__printf_chk@PLT
GAS LISTING /tmp/ccIaWb1g.s 			page 13


 369      00
 370 0325 488DBC24 		leaq	2592(%rsp), %rdi
 370      200A0000 
 371 032d BA400100 		movl	$320, %edx
 371      00
 372 0332 488D3500 		leaq	InputSignal_f32_1kHz_15kHz(%rip), %rsi
 372      000000
 373 0339 E8000000 		call	dsp_running_sum@PLT
 373      00
 374 033e BA400100 		movl	$320, %edx
 374      00
 375 0343 488D3500 		leaq	InputSignal_f32_1kHz_15kHz(%rip), %rsi
 375      000000
 376 034a 488D3D00 		leaq	.LC28(%rip), %rdi
 376      000000
 377 0351 E8000000 		call	create_dat_file
 377      00
 378 0356 85C0     		testl	%eax, %eax
 379 0358 0F84FF01 		je	.L24
 379      0000
 380 035e 488D3500 		leaq	.LC30(%rip), %rsi
 380      000000
 381 0365 BF010000 		movl	$1, %edi
 381      00
 382 036a B8000000 		movl	$0, %eax
 382      00
 383 036f E8000000 		call	__printf_chk@PLT
 383      00
 384 0374 488DB424 		leaq	2592(%rsp), %rsi
 384      200A0000 
 385 037c BA400100 		movl	$320, %edx
 385      00
 386 0381 488D3D00 		leaq	.LC31(%rip), %rdi
 386      000000
 387 0388 E8000000 		call	create_dat_file
 387      00
 388 038d 85C0     		testl	%eax, %eax
 389 038f 0F84E701 		je	.L25
 389      0000
 390 0395 488D3500 		leaq	.LC33(%rip), %rsi
 390      000000
 391 039c BF010000 		movl	$1, %edi
 391      00
 392 03a1 B8000000 		movl	$0, %eax
 392      00
 393 03a6 E8000000 		call	__printf_chk@PLT
 393      00
 394 03ab 488D3500 		leaq	.LC11(%rip), %rsi
 394      000000
 395 03b2 BF010000 		movl	$1, %edi
 395      00
 396 03b7 B8000000 		movl	$0, %eax
 396      00
 397 03bc E8000000 		call	__printf_chk@PLT
 397      00
 398 03c1 488D3500 		leaq	.LC34(%rip), %rsi
 398      000000
GAS LISTING /tmp/ccIaWb1g.s 			page 14


 399 03c8 BF010000 		movl	$1, %edi
 399      00
 400 03cd B8000000 		movl	$0, %eax
 400      00
 401 03d2 E8000000 		call	__printf_chk@PLT
 401      00
 402 03d7 488D3500 		leaq	.LC35(%rip), %rsi
 402      000000
 403 03de BF010000 		movl	$1, %edi
 403      00
 404 03e3 B8000000 		movl	$0, %eax
 404      00
 405 03e8 E8000000 		call	__printf_chk@PLT
 405      00
 406 03ed 488D9424 		leaq	1312(%rsp), %rdx
 406      20050000 
 407 03f5 488D7424 		leaq	32(%rsp), %rsi
 407      20
 408 03fa B9400100 		movl	$320, %ecx
 408      00
 409 03ff 488D3D00 		leaq	InputSignal_f32_1kHz_15kHz(%rip), %rdi
 409      000000
 410 0406 E8000000 		call	dsp_dft@PLT
 410      00
 411 040b BA400100 		movl	$320, %edx
 411      00
 412 0410 488D3500 		leaq	InputSignal_f32_1kHz_15kHz(%rip), %rsi
 412      000000
 413 0417 488D3D00 		leaq	.LC36(%rip), %rdi
 413      000000
 414 041e E8000000 		call	create_dat_file
 414      00
 415 0423 85C0     		testl	%eax, %eax
 416 0425 0F847301 		je	.L26
 416      0000
 417 042b 488D3500 		leaq	.LC38(%rip), %rsi
 417      000000
 418 0432 BF010000 		movl	$1, %edi
 418      00
 419 0437 B8000000 		movl	$0, %eax
 419      00
 420 043c E8000000 		call	__printf_chk@PLT
 420      00
 421 0441 488D7424 		leaq	32(%rsp), %rsi
 421      20
 422 0446 BAA00000 		movl	$160, %edx
 422      00
 423 044b 488D3D00 		leaq	.LC39(%rip), %rdi
 423      000000
 424 0452 E8000000 		call	create_dat_file
 424      00
 425 0457 85C0     		testl	%eax, %eax
 426 0459 0F846101 		je	.L27
 426      0000
 427 045f 488D3500 		leaq	.LC41(%rip), %rsi
 427      000000
 428 0466 BF010000 		movl	$1, %edi
GAS LISTING /tmp/ccIaWb1g.s 			page 15


 428      00
 429 046b B8000000 		movl	$0, %eax
 429      00
 430 0470 E8000000 		call	__printf_chk@PLT
 430      00
 431 0475 488DB424 		leaq	1312(%rsp), %rsi
 431      20050000 
 432 047d BAA00000 		movl	$160, %edx
 432      00
 433 0482 488D3D00 		leaq	.LC42(%rip), %rdi
 433      000000
 434 0489 E8000000 		call	create_dat_file
 434      00
 435 048e 85C0     		testl	%eax, %eax
 436 0490 0F844C01 		je	.L28
 436      0000
 437 0496 488D3500 		leaq	.LC44(%rip), %rsi
 437      000000
 438 049d BF010000 		movl	$1, %edi
 438      00
 439 04a2 B8000000 		movl	$0, %eax
 439      00
 440 04a7 E8000000 		call	__printf_chk@PLT
 440      00
 441 04ac B8000000 		movl	$0, %eax
 441      00
 442 04b1 EB49     		jmp	.L7
 443              	.L20:
 444 04b3 488D1500 		leaq	.LC4(%rip), %rdx
 444      000000
 445 04ba BE010000 		movl	$1, %esi
 445      00
 446 04bf 488B3D00 		movq	stderr(%rip), %rdi
 446      000000
 447 04c6 B8000000 		movl	$0, %eax
 447      00
 448 04cb E8000000 		call	__fprintf_chk@PLT
 448      00
 449 04d0 4C89E7   		movq	%r12, %rdi
 450 04d3 E8000000 		call	free@PLT
 450      00
 451 04d8 B8010000 		movl	$1, %eax
 451      00
 452 04dd EB1D     		jmp	.L7
 453              	.L21:
 454 04df 488D1500 		leaq	.LC20(%rip), %rdx
 454      000000
 455 04e6 BE010000 		movl	$1, %esi
 455      00
 456 04eb 488B3D00 		movq	stderr(%rip), %rdi
 456      000000
 457 04f2 E8000000 		call	__fprintf_chk@PLT
 457      00
 458 04f7 B8010000 		movl	$1, %eax
 458      00
 459              	.L7:
 460 04fc 488B9424 		movq	7944(%rsp), %rdx
GAS LISTING /tmp/ccIaWb1g.s 			page 16


 460      081F0000 
 461 0504 64483314 		xorq	%fs:40, %rdx
 461      25280000 
 461      00
 462 050d 0F85F100 		jne	.L29
 462      0000
 463 0513 4881C410 		addq	$7952, %rsp
 463      1F0000
 464              		.cfi_remember_state
 465              		.cfi_def_cfa_offset 32
 466 051a 5B       		popq	%rbx
 467              		.cfi_def_cfa_offset 24
 468 051b 5D       		popq	%rbp
 469              		.cfi_def_cfa_offset 16
 470 051c 415C     		popq	%r12
 471              		.cfi_def_cfa_offset 8
 472 051e C3       		ret
 473              	.L22:
 474              		.cfi_restore_state
 475 051f 488D1500 		leaq	.LC23(%rip), %rdx
 475      000000
 476 0526 BE010000 		movl	$1, %esi
 476      00
 477 052b 488B3D00 		movq	stderr(%rip), %rdi
 477      000000
 478 0532 E8000000 		call	__fprintf_chk@PLT
 478      00
 479 0537 B8010000 		movl	$1, %eax
 479      00
 480 053c EBBE     		jmp	.L7
 481              	.L23:
 482 053e 488D1500 		leaq	.LC26(%rip), %rdx
 482      000000
 483 0545 BE010000 		movl	$1, %esi
 483      00
 484 054a 488B3D00 		movq	stderr(%rip), %rdi
 484      000000
 485 0551 E8000000 		call	__fprintf_chk@PLT
 485      00
 486 0556 B8010000 		movl	$1, %eax
 486      00
 487 055b EB9F     		jmp	.L7
 488              	.L24:
 489 055d 488D1500 		leaq	.LC29(%rip), %rdx
 489      000000
 490 0564 BE010000 		movl	$1, %esi
 490      00
 491 0569 488B3D00 		movq	stderr(%rip), %rdi
 491      000000
 492 0570 E8000000 		call	__fprintf_chk@PLT
 492      00
 493 0575 B8010000 		movl	$1, %eax
 493      00
 494 057a EB80     		jmp	.L7
 495              	.L25:
 496 057c 488D1500 		leaq	.LC32(%rip), %rdx
 496      000000
GAS LISTING /tmp/ccIaWb1g.s 			page 17


 497 0583 BE010000 		movl	$1, %esi
 497      00
 498 0588 488B3D00 		movq	stderr(%rip), %rdi
 498      000000
 499 058f E8000000 		call	__fprintf_chk@PLT
 499      00
 500 0594 B8010000 		movl	$1, %eax
 500      00
 501 0599 E95EFFFF 		jmp	.L7
 501      FF
 502              	.L26:
 503 059e 488D1500 		leaq	.LC37(%rip), %rdx
 503      000000
 504 05a5 BE010000 		movl	$1, %esi
 504      00
 505 05aa 488B3D00 		movq	stderr(%rip), %rdi
 505      000000
 506 05b1 E8000000 		call	__fprintf_chk@PLT
 506      00
 507 05b6 B8010000 		movl	$1, %eax
 507      00
 508 05bb E93CFFFF 		jmp	.L7
 508      FF
 509              	.L27:
 510 05c0 488D1500 		leaq	.LC40(%rip), %rdx
 510      000000
 511 05c7 BE010000 		movl	$1, %esi
 511      00
 512 05cc 488B3D00 		movq	stderr(%rip), %rdi
 512      000000
 513 05d3 E8000000 		call	__fprintf_chk@PLT
 513      00
 514 05d8 B8010000 		movl	$1, %eax
 514      00
 515 05dd E91AFFFF 		jmp	.L7
 515      FF
 516              	.L28:
 517 05e2 488D1500 		leaq	.LC43(%rip), %rdx
 517      000000
 518 05e9 BE010000 		movl	$1, %esi
 518      00
 519 05ee 488B3D00 		movq	stderr(%rip), %rdi
 519      000000
 520 05f5 E8000000 		call	__fprintf_chk@PLT
 520      00
 521 05fa B8010000 		movl	$1, %eax
 521      00
 522 05ff E9F8FEFF 		jmp	.L7
 522      FF
 523              	.L29:
 524 0604 E8000000 		call	__stack_chk_fail@PLT
 524      00
 525              		.cfi_endproc
 526              	.LFE36:
 528              		.ident	"GCC: (Ubuntu 7.5.0-3ubuntu1~18.04) 7.5.0"
 529              		.section	.note.GNU-stack,"",@progbits
GAS LISTING /tmp/ccIaWb1g.s 			page 18


DEFINED SYMBOLS
                            *ABS*:0000000000000000 main.c
     /tmp/ccIaWb1g.s:11     .text.create_dat_file:0000000000000000 create_dat_file
     /tmp/ccIaWb1g.s:203    .text.main:0000000000000000 main
     /tmp/ccIaWb1g.s:4      .rodata.create_dat_file.str1.1:0000000000000000 .LC0
     /tmp/ccIaWb1g.s:6      .rodata.create_dat_file.str1.1:0000000000000003 .LC1
     /tmp/ccIaWb1g.s:72     .rodata.main.str1.1:0000000000000000 .LC2
     /tmp/ccIaWb1g.s:76     .rodata.main.str1.8:0000000000000000 .LC3
     /tmp/ccIaWb1g.s:82     .rodata.main.str1.8:0000000000000058 .LC5
     /tmp/ccIaWb1g.s:85     .rodata.main.str1.1:000000000000000f .LC6
     /tmp/ccIaWb1g.s:87     .rodata.main.str1.1:0000000000000024 .LC7
     /tmp/ccIaWb1g.s:89     .rodata.main.str1.1:0000000000000039 .LC8
     /tmp/ccIaWb1g.s:93     .rodata.main.str1.8:0000000000000088 .LC9
     /tmp/ccIaWb1g.s:96     .rodata.main.str1.8:00000000000000c8 .LC10
     /tmp/ccIaWb1g.s:99     .rodata.main.str1.1:0000000000000053 .LC11
     /tmp/ccIaWb1g.s:103    .rodata.main.str1.8:0000000000000130 .LC12
     /tmp/ccIaWb1g.s:106    .rodata.main.str1.8:0000000000000170 .LC13
     /tmp/ccIaWb1g.s:109    .rodata.main.str1.1:0000000000000055 .LC14
     /tmp/ccIaWb1g.s:111    .rodata.main.str1.1:0000000000000069 .LC15
     /tmp/ccIaWb1g.s:113    .rodata.main.str1.1:000000000000007d .LC16
     /tmp/ccIaWb1g.s:115    .rodata.main.str1.1:0000000000000092 .LC17
     /tmp/ccIaWb1g.s:117    .rodata.main.str1.1:00000000000000a4 .LC18
     /tmp/ccIaWb1g.s:121    .rodata.main.str1.8:00000000000001b0 .LC19
     /tmp/ccIaWb1g.s:127    .rodata.main.str1.8:0000000000000230 .LC21
     /tmp/ccIaWb1g.s:130    .rodata.main.str1.8:0000000000000268 .LC22
     /tmp/ccIaWb1g.s:136    .rodata.main.str1.8:00000000000002e8 .LC24
     /tmp/ccIaWb1g.s:139    .rodata.main.str1.8:0000000000000320 .LC25
     /tmp/ccIaWb1g.s:145    .rodata.main.str1.8:00000000000003a0 .LC27
     /tmp/ccIaWb1g.s:148    .rodata.main.str1.8:00000000000003d8 .LC28
     /tmp/ccIaWb1g.s:154    .rodata.main.str1.8:0000000000000458 .LC30
     /tmp/ccIaWb1g.s:157    .rodata.main.str1.8:0000000000000490 .LC31
     /tmp/ccIaWb1g.s:163    .rodata.main.str1.8:0000000000000510 .LC33
     /tmp/ccIaWb1g.s:166    .rodata.main.str1.8:0000000000000548 .LC34
     /tmp/ccIaWb1g.s:169    .rodata.main.str1.8:0000000000000570 .LC35
     /tmp/ccIaWb1g.s:172    .rodata.main.str1.8:0000000000000598 .LC36
     /tmp/ccIaWb1g.s:178    .rodata.main.str1.8:0000000000000600 .LC38
     /tmp/ccIaWb1g.s:181    .rodata.main.str1.1:00000000000000b6 .LC39
     /tmp/ccIaWb1g.s:188    .rodata.main.str1.8:0000000000000678 .LC41
     /tmp/ccIaWb1g.s:191    .rodata.main.str1.1:00000000000000d4 .LC42
     /tmp/ccIaWb1g.s:198    .rodata.main.str1.8:00000000000006e8 .LC44
     /tmp/ccIaWb1g.s:79     .rodata.main.str1.8:0000000000000028 .LC4
     /tmp/ccIaWb1g.s:124    .rodata.main.str1.8:00000000000001e0 .LC20
     /tmp/ccIaWb1g.s:133    .rodata.main.str1.8:0000000000000298 .LC23
     /tmp/ccIaWb1g.s:142    .rodata.main.str1.8:0000000000000350 .LC26
     /tmp/ccIaWb1g.s:151    .rodata.main.str1.8:0000000000000408 .LC29
     /tmp/ccIaWb1g.s:160    .rodata.main.str1.8:00000000000004c0 .LC32
     /tmp/ccIaWb1g.s:175    .rodata.main.str1.8:00000000000005b8 .LC37
     /tmp/ccIaWb1g.s:185    .rodata.main.str1.8:0000000000000630 .LC40
     /tmp/ccIaWb1g.s:195    .rodata.main.str1.8:00000000000006a0 .LC43

UNDEFINED SYMBOLS
_GLOBAL_OFFSET_TABLE_
fopen
__fprintf_chk
fclose
malloc
readlink
GAS LISTING /tmp/ccIaWb1g.s 			page 19


__printf_chk
memset
realpath
free
strlen
InputSignal_f32_1kHz_15kHz
dsp_sig_mean
dsp_sig_variance
dsp_sig_std_dev
Impulse_response
dsp_convolution
dsp_running_sum
dsp_dft
stderr
__stack_chk_fail
