GAS LISTING /tmp/cccgCu8u.s 			page 1


   1              		.file	"main.c"
   2              		.text
   3              		.section	.rodata.check_mem_alloc.str1.1,"aMS",@progbits,1
   4              	.LC0:
   5 0000 4D656D6D 		.string	"Memmory allocation error!\n"
   5      6F727920 
   5      616C6C6F 
   5      63617469 
   5      6F6E2065 
   6              		.section	.text.check_mem_alloc,"ax",@progbits
   8              	check_mem_alloc:
   9              	.LFB38:
  10              		.cfi_startproc
  11 0000 4885FF   		testq	%rdi, %rdi
  12 0003 7402     		je	.L6
  13 0005 F3C3     		rep ret
  14              	.L6:
  15 0007 4883EC08 		subq	$8, %rsp
  16              		.cfi_def_cfa_offset 16
  17 000b 488D1500 		leaq	.LC0(%rip), %rdx
  17      000000
  18 0012 BE010000 		movl	$1, %esi
  18      00
  19 0017 488B3D00 		movq	stderr(%rip), %rdi
  19      000000
  20 001e B8000000 		movl	$0, %eax
  20      00
  21 0023 E8000000 		call	__fprintf_chk@PLT
  21      00
  22 0028 BF010000 		movl	$1, %edi
  22      00
  23 002d E8000000 		call	exit@PLT
  23      00
  24              		.cfi_endproc
  25              	.LFE38:
  27              		.section	.text.prepare_path,"ax",@progbits
  28              		.globl	prepare_path
  30              	prepare_path:
  31              	.LFB39:
  32              		.cfi_startproc
  33 0000 4155     		pushq	%r13
  34              		.cfi_def_cfa_offset 16
  35              		.cfi_offset 13, -16
  36 0002 4154     		pushq	%r12
  37              		.cfi_def_cfa_offset 24
  38              		.cfi_offset 12, -24
  39 0004 55       		pushq	%rbp
  40              		.cfi_def_cfa_offset 32
  41              		.cfi_offset 6, -32
  42 0005 53       		pushq	%rbx
  43              		.cfi_def_cfa_offset 40
  44              		.cfi_offset 3, -40
  45 0006 4883EC08 		subq	$8, %rsp
  46              		.cfi_def_cfa_offset 48
  47 000a 4989FD   		movq	%rdi, %r13
  48 000d 4989F4   		movq	%rsi, %r12
  49 0010 E8000000 		call	strlen@PLT
GAS LISTING /tmp/cccgCu8u.s 			page 2


  49      00
  50 0015 4889C3   		movq	%rax, %rbx
  51 0018 4C89E7   		movq	%r12, %rdi
  52 001b E8000000 		call	strlen@PLT
  52      00
  53 0020 8D7C1802 		leal	2(%rax,%rbx), %edi
  54 0024 4863FF   		movslq	%edi, %rdi
  55 0027 E8000000 		call	malloc@PLT
  55      00
  56 002c 4889C5   		movq	%rax, %rbp
  57 002f 4C89EE   		movq	%r13, %rsi
  58 0032 4889C7   		movq	%rax, %rdi
  59 0035 E8000000 		call	strcpy@PLT
  59      00
  60 003a 4863DB   		movslq	%ebx, %rbx
  61 003d C6441D00 		movb	$47, 0(%rbp,%rbx)
  61      2F
  62 0042 488D7C1D 		leaq	1(%rbp,%rbx), %rdi
  62      01
  63 0047 4C89E6   		movq	%r12, %rsi
  64 004a E8000000 		call	strcpy@PLT
  64      00
  65 004f 4889E8   		movq	%rbp, %rax
  66 0052 4883C408 		addq	$8, %rsp
  67              		.cfi_def_cfa_offset 40
  68 0056 5B       		popq	%rbx
  69              		.cfi_def_cfa_offset 32
  70 0057 5D       		popq	%rbp
  71              		.cfi_def_cfa_offset 24
  72 0058 415C     		popq	%r12
  73              		.cfi_def_cfa_offset 16
  74 005a 415D     		popq	%r13
  75              		.cfi_def_cfa_offset 8
  76 005c C3       		ret
  77              		.cfi_endproc
  78              	.LFE39:
  80              		.section	.rodata.create_dat_file.str1.1,"aMS",@progbits,1
  81              	.LC1:
  82 0000 772B00   		.string	"w+"
  83              		.section	.rodata.create_dat_file.str1.8,"aMS",@progbits,1
  84              		.align 8
  85              	.LC2:
  86 0000 416E2065 		.string	"An error occured in file creation: %s\n"
  86      72726F72 
  86      206F6363 
  86      75726564 
  86      20696E20 
  87              		.section	.rodata.create_dat_file.str1.1
  88              	.LC3:
  89 0003 0A256600 		.string	"\n%f"
  90              	.LC4:
  91 0007 25732063 		.string	"%s created. (%d elements)\n"
  91      72656174 
  91      65642E20 
  91      28256420 
  91      656C656D 
  92              		.section	.text.create_dat_file,"ax",@progbits
GAS LISTING /tmp/cccgCu8u.s 			page 3


  93              		.globl	create_dat_file
  95              	create_dat_file:
  96              	.LFB37:
  97              		.cfi_startproc
  98 0000 4156     		pushq	%r14
  99              		.cfi_def_cfa_offset 16
 100              		.cfi_offset 14, -16
 101 0002 4155     		pushq	%r13
 102              		.cfi_def_cfa_offset 24
 103              		.cfi_offset 13, -24
 104 0004 4154     		pushq	%r12
 105              		.cfi_def_cfa_offset 32
 106              		.cfi_offset 12, -32
 107 0006 55       		pushq	%rbp
 108              		.cfi_def_cfa_offset 40
 109              		.cfi_offset 6, -40
 110 0007 53       		pushq	%rbx
 111              		.cfi_def_cfa_offset 48
 112              		.cfi_offset 3, -48
 113 0008 4989D5   		movq	%rdx, %r13
 114 000b 4989CC   		movq	%rcx, %r12
 115 000e E8000000 		call	prepare_path
 115      00
 116 0013 4885C0   		testq	%rax, %rax
 117 0016 7421     		je	.L15
 118 0018 4989C6   		movq	%rax, %r14
 119 001b 488D3500 		leaq	.LC1(%rip), %rsi
 119      000000
 120 0022 4889C7   		movq	%rax, %rdi
 121 0025 E8000000 		call	fopen@PLT
 121      00
 122 002a 4889C5   		movq	%rax, %rbp
 123 002d 4885C0   		testq	%rax, %rax
 124 0030 742E     		je	.L16
 125 0032 BB000000 		movl	$0, %ebx
 125      00
 126 0037 EB75     		jmp	.L11
 127              	.L15:
 128 0039 488D1500 		leaq	.LC0(%rip), %rdx
 128      000000
 129 0040 BE010000 		movl	$1, %esi
 129      00
 130 0045 488B3D00 		movq	stderr(%rip), %rdi
 130      000000
 131 004c B8000000 		movl	$0, %eax
 131      00
 132 0051 E8000000 		call	__fprintf_chk@PLT
 132      00
 133 0056 BF010000 		movl	$1, %edi
 133      00
 134 005b E8000000 		call	exit@PLT
 134      00
 135              	.L16:
 136 0060 4C89F1   		movq	%r14, %rcx
 137 0063 488D1500 		leaq	.LC2(%rip), %rdx
 137      000000
 138 006a BE010000 		movl	$1, %esi
GAS LISTING /tmp/cccgCu8u.s 			page 4


 138      00
 139 006f 488B3D00 		movq	stderr(%rip), %rdi
 139      000000
 140 0076 B8000000 		movl	$0, %eax
 140      00
 141 007b E8000000 		call	__fprintf_chk@PLT
 141      00
 142 0080 BF010000 		movl	$1, %edi
 142      00
 143 0085 E8000000 		call	exit@PLT
 143      00
 144              	.L12:
 145 008a F2410F10 		movsd	0(%r13,%rbx,8), %xmm0
 145      44DD00
 146 0091 488D1500 		leaq	.LC3(%rip), %rdx
 146      000000
 147 0098 BE010000 		movl	$1, %esi
 147      00
 148 009d 4889EF   		movq	%rbp, %rdi
 149 00a0 B8010000 		movl	$1, %eax
 149      00
 150 00a5 E8000000 		call	__fprintf_chk@PLT
 150      00
 151 00aa 4883C301 		addq	$1, %rbx
 152              	.L11:
 153 00ae 4C39E3   		cmpq	%r12, %rbx
 154 00b1 72D7     		jb	.L12
 155 00b3 4D89E0   		movq	%r12, %r8
 156 00b6 4C89F1   		movq	%r14, %rcx
 157 00b9 488D1500 		leaq	.LC4(%rip), %rdx
 157      000000
 158 00c0 BE010000 		movl	$1, %esi
 158      00
 159 00c5 488B3D00 		movq	stdout(%rip), %rdi
 159      000000
 160 00cc B8000000 		movl	$0, %eax
 160      00
 161 00d1 E8000000 		call	__fprintf_chk@PLT
 161      00
 162 00d6 4889EF   		movq	%rbp, %rdi
 163 00d9 E8000000 		call	fclose@PLT
 163      00
 164 00de 4C89F7   		movq	%r14, %rdi
 165 00e1 E8000000 		call	free@PLT
 165      00
 166 00e6 5B       		popq	%rbx
 167              		.cfi_def_cfa_offset 40
 168 00e7 5D       		popq	%rbp
 169              		.cfi_def_cfa_offset 32
 170 00e8 415C     		popq	%r12
 171              		.cfi_def_cfa_offset 24
 172 00ea 415D     		popq	%r13
 173              		.cfi_def_cfa_offset 16
 174 00ec 415E     		popq	%r14
 175              		.cfi_def_cfa_offset 8
 176 00ee C3       		ret
 177              		.cfi_endproc
GAS LISTING /tmp/cccgCu8u.s 			page 5


 178              	.LFE37:
 180              		.section	.rodata.main.str1.1,"aMS",@progbits,1
 181              	.LC5:
 182 0000 54657374 		.string	"Testing DSP library\n"
 182      696E6720 
 182      44535020 
 182      6C696272 
 182      6172790A 
 183              	.LC6:
 184 0015 3D3D3D3D 		.string	"===================\n"
 184      3D3D3D3D 
 184      3D3D3D3D 
 184      3D3D3D3D 
 184      3D3D3D0A 
 185              	.LC7:
 186 002a 44657665 		.string	"Developer: Istvan Milak\n\n"
 186      6C6F7065 
 186      723A2049 
 186      73747661 
 186      6E204D69 
 187              		.section	.rodata.main.str1.8,"aMS",@progbits,1
 188              		.align 8
 189              	.LC8:
 190 0000 54686520 		.string	"The software generate the calculation result *.dat files\n"
 190      736F6674 
 190      77617265 
 190      2067656E 
 190      65726174 
 191 003a 00000000 		.align 8
 191      0000
 192              	.LC9:
 193 0040 596F7520 		.string	"You can find the correspondig dat files in test/dat/* dirs with html output and gnuplot s
 193      63616E20 
 193      66696E64 
 193      20746865 
 193      20636F72 
 194              		.section	.rodata.main.str1.1
 195              	.LC10:
 196 0044 0A00     		.string	"\n"
 197              	.LC11:
 198 0046 2F70726F 		.string	"/proc/self/exe"
 198      632F7365 
 198      6C662F65 
 198      786500
 199              	.LC12:
 200 0055 46756C6C 		.string	"Full path of executable:\t%s\n"
 200      20706174 
 200      68206F66 
 200      20657865 
 200      63757461 
 201              		.section	.rodata.main.str1.8
 202 00a1 00000000 		.align 8
 202      000000
 203              	.LC13:
 204 00a8 4162736F 		.string	"Absolute path of test directory:\t%s\n\n"
 204      6C757465 
 204      20706174 
GAS LISTING /tmp/cccgCu8u.s 			page 6


 204      68206F66 
 204      20746573 
 205 00ce 0000     		.align 8
 206              	.LC14:
 207 00d0 53746174 		.string	"Statistic of Input Signal (1kHz and 15 kHz sine components)\n"
 207      69737469 
 207      63206F66 
 207      20496E70 
 207      75742053 
 208 010d 000000   		.align 8
 209              	.LC15:
 210 0110 2D2D2D2D 		.string	"-----------------------------------------------------------\n"
 210      2D2D2D2D 
 210      2D2D2D2D 
 210      2D2D2D2D 
 210      2D2D2D2D 
 211              		.section	.rodata.main.str1.1
 212              	.LC16:
 213 0072 6D65616E 		.string	"mean:          %lf\n"
 213      3A202020 
 213      20202020 
 213      20202025 
 213      6C660A00 
 214              	.LC17:
 215 0086 76617269 		.string	"variance:      %lf\n"
 215      616E6365 
 215      3A202020 
 215      20202025 
 215      6C660A00 
 216              	.LC18:
 217 009a 7374616E 		.string	"standard dev:  %lf\n\n"
 217      64617264 
 217      20646576 
 217      3A202025 
 217      6C660A0A 
 218              	.LC19:
 219 00af 436F6E76 		.string	"Convolution test\n"
 219      6F6C7574 
 219      696F6E20 
 219      74657374 
 219      0A00
 220              	.LC20:
 221 00c1 2D2D2D2D 		.string	"----------------\n"
 221      2D2D2D2D 
 221      2D2D2D2D 
 221      2D2D2D2D 
 221      0A00
 222              		.section	.rodata.main.str1.8
 223 014d 000000   		.align 8
 224              	.LC21:
 225 0150 6461742F 		.string	"dat/convolution/conv_input_signal.dat"
 225      636F6E76 
 225      6F6C7574 
 225      696F6E2F 
 225      636F6E76 
 226 0176 0000     		.align 8
 227              	.LC22:
GAS LISTING /tmp/cccgCu8u.s 			page 7


 228 0178 6461742F 		.string	"dat/convolution/conv_impulse_response.dat"
 228      636F6E76 
 228      6F6C7574 
 228      696F6E2F 
 228      636F6E76 
 229 01a2 00000000 		.align 8
 229      0000
 230              	.LC23:
 231 01a8 6461742F 		.string	"dat/convolution/conv_output_signal.dat"
 231      636F6E76 
 231      6F6C7574 
 231      696F6E2F 
 231      636F6E76 
 232 01cf 00       		.align 8
 233              	.LC24:
 234 01d0 6461742F 		.string	"dat/convolution/rsum_input_signal.dat"
 234      636F6E76 
 234      6F6C7574 
 234      696F6E2F 
 234      7273756D 
 235 01f6 0000     		.align 8
 236              	.LC25:
 237 01f8 6461742F 		.string	"dat/convolution/rsum_output_signal.dat"
 237      636F6E76 
 237      6F6C7574 
 237      696F6E2F 
 237      7273756D 
 238 021f 00       		.align 8
 239              	.LC26:
 240 0220 44697363 		.string	"Discrete Fourier transformation test\n"
 240      72657465 
 240      20466F75 
 240      72696572 
 240      20747261 
 241 0246 0000     		.align 8
 242              	.LC27:
 243 0248 2D2D2D2D 		.string	"------------------------------------\n"
 243      2D2D2D2D 
 243      2D2D2D2D 
 243      2D2D2D2D 
 243      2D2D2D2D 
 244              		.section	.rodata.main.str1.1
 245              	.LC28:
 246 00d3 6461742F 		.string	"dat/dft/dft_input_signal.dat"
 246      6466742F 
 246      6466745F 
 246      696E7075 
 246      745F7369 
 247              	.LC29:
 248 00f0 6461742F 		.string	"dat/dft/dft_output_rex.dat"
 248      6466742F 
 248      6466745F 
 248      6F757470 
 248      75745F72 
 249              	.LC30:
 250 010b 6461742F 		.string	"dat/dft/dft_output_imx.dat"
 250      6466742F 
GAS LISTING /tmp/cccgCu8u.s 			page 8


 250      6466745F 
 250      6F757470 
 250      75745F69 
 251              		.section	.rodata.main.str1.8
 252 026e 0000     		.align 8
 253              	.LC31:
 254 0270 2F646174 		.string	"/dat/dft/idft_output_signal.dat"
 254      2F646674 
 254      2F696466 
 254      745F6F75 
 254      74707574 
 255              		.section	.rodata.main.str1.1
 256              	.LC32:
 257 0126 6461742F 		.string	"dat/dft/dft_output_mag.dat"
 257      6466742F 
 257      6466745F 
 257      6F757470 
 257      75745F6D 
 258              		.section	.rodata.main.str1.8
 259              		.align 8
 260              	.LC33:
 261 0290 6461742F 		.string	"dat/dft/dft_ecg_input_signal.dat"
 261      6466742F 
 261      6466745F 
 261      6563675F 
 261      696E7075 
 262 02b1 00000000 		.align 8
 262      000000
 263              	.LC34:
 264 02b8 6461742F 		.string	"dat/dft/dft_ecg_output_rex.dat"
 264      6466742F 
 264      6466745F 
 264      6563675F 
 264      6F757470 
 265 02d7 00       		.align 8
 266              	.LC35:
 267 02d8 6461742F 		.string	"dat/dft/dft_ecg_output_imx.dat"
 267      6466742F 
 267      6466745F 
 267      6563675F 
 267      6F757470 
 268 02f7 00       		.align 8
 269              	.LC36:
 270 02f8 6461742F 		.string	"dat/dft/idft_ecg_output_signal.dat"
 270      6466742F 
 270      69646674 
 270      5F656367 
 270      5F6F7574 
 271 031b 00000000 		.align 8
 271      00
 272              	.LC37:
 273 0320 6461742F 		.string	"dat/dft/dft_ecg_output_mag.dat"
 273      6466742F 
 273      6466745F 
 273      6563675F 
 273      6F757470 
 274 033f 00       		.align 8
GAS LISTING /tmp/cccgCu8u.s 			page 9


 275              	.LC38:
 276 0340 6461742F 		.string	"dat/dft/dft_ecg_output_phase.dat"
 276      6466742F 
 276      6466745F 
 276      6563675F 
 276      6F757470 
 277 0361 00000000 		.align 8
 277      000000
 278              	.LC39:
 279 0368 436F6D70 		.string	"Complex Discrete Fourier transformation test\n"
 279      6C657820 
 279      44697363 
 279      72657465 
 279      20466F75 
 280 0396 0000     		.align 8
 281              	.LC40:
 282 0398 2D2D2D2D 		.string	"--------------------------------------------\n"
 282      2D2D2D2D 
 282      2D2D2D2D 
 282      2D2D2D2D 
 282      2D2D2D2D 
 283 03c6 0000     		.align 8
 284              	.LC41:
 285 03c8 6461742F 		.string	"dat/cdft/cdft_sig_input_rex.dat"
 285      63646674 
 285      2F636466 
 285      745F7369 
 285      675F696E 
 286              		.align 8
 287              	.LC42:
 288 03e8 6461742F 		.string	"dat/cdft/cdft_sig_input_imx.dat"
 288      63646674 
 288      2F636466 
 288      745F7369 
 288      675F696E 
 289              		.align 8
 290              	.LC43:
 291 0408 6461742F 		.string	"dat/cdft/cdft_sig_output_rex.dat"
 291      63646674 
 291      2F636466 
 291      745F7369 
 291      675F6F75 
 292 0429 00000000 		.align 8
 292      000000
 293              	.LC44:
 294 0430 6461742F 		.string	"dat/cdft/cdft_sig_output_imx.dat"
 294      63646674 
 294      2F636466 
 294      745F7369 
 294      675F6F75 
 295              		.section	.text.main,"ax",@progbits
 296              		.globl	main
 298              	main:
 299              	.LFB36:
 300              		.cfi_startproc
 301 0000 4157     		pushq	%r15
 302              		.cfi_def_cfa_offset 16
GAS LISTING /tmp/cccgCu8u.s 			page 10


 303              		.cfi_offset 15, -16
 304 0002 4156     		pushq	%r14
 305              		.cfi_def_cfa_offset 24
 306              		.cfi_offset 14, -24
 307 0004 4155     		pushq	%r13
 308              		.cfi_def_cfa_offset 32
 309              		.cfi_offset 13, -32
 310 0006 4154     		pushq	%r12
 311              		.cfi_def_cfa_offset 40
 312              		.cfi_offset 12, -40
 313 0008 55       		pushq	%rbp
 314              		.cfi_def_cfa_offset 48
 315              		.cfi_offset 6, -48
 316 0009 53       		pushq	%rbx
 317              		.cfi_def_cfa_offset 56
 318              		.cfi_offset 3, -56
 319 000a 4883EC28 		subq	$40, %rsp
 320              		.cfi_def_cfa_offset 96
 321 000e 488D3500 		leaq	.LC5(%rip), %rsi
 321      000000
 322 0015 BF010000 		movl	$1, %edi
 322      00
 323 001a B8000000 		movl	$0, %eax
 323      00
 324 001f E8000000 		call	__printf_chk@PLT
 324      00
 325 0024 488D3500 		leaq	.LC6(%rip), %rsi
 325      000000
 326 002b BF010000 		movl	$1, %edi
 326      00
 327 0030 B8000000 		movl	$0, %eax
 327      00
 328 0035 E8000000 		call	__printf_chk@PLT
 328      00
 329 003a 488D3500 		leaq	.LC7(%rip), %rsi
 329      000000
 330 0041 BF010000 		movl	$1, %edi
 330      00
 331 0046 B8000000 		movl	$0, %eax
 331      00
 332 004b E8000000 		call	__printf_chk@PLT
 332      00
 333 0050 488D3500 		leaq	.LC8(%rip), %rsi
 333      000000
 334 0057 BF010000 		movl	$1, %edi
 334      00
 335 005c B8000000 		movl	$0, %eax
 335      00
 336 0061 E8000000 		call	__printf_chk@PLT
 336      00
 337 0066 488D3500 		leaq	.LC9(%rip), %rsi
 337      000000
 338 006d BF010000 		movl	$1, %edi
 338      00
 339 0072 B8000000 		movl	$0, %eax
 339      00
 340 0077 E8000000 		call	__printf_chk@PLT
GAS LISTING /tmp/cccgCu8u.s 			page 11


 340      00
 341 007c 488D3500 		leaq	.LC10(%rip), %rsi
 341      000000
 342 0083 BF010000 		movl	$1, %edi
 342      00
 343 0088 B8000000 		movl	$0, %eax
 343      00
 344 008d E8000000 		call	__printf_chk@PLT
 344      00
 345 0092 BFE80300 		movl	$1000, %edi
 345      00
 346 0097 E8000000 		call	malloc@PLT
 346      00
 347 009c 4989C4   		movq	%rax, %r12
 348 009f 48C70000 		movq	$0, (%rax)
 348      000000
 349 00a6 48C780E0 		movq	$0, 992(%rax)
 349      03000000 
 349      000000
 350 00b1 488D7808 		leaq	8(%rax), %rdi
 351 00b5 4883E7F8 		andq	$-8, %rdi
 352 00b9 4889C1   		movq	%rax, %rcx
 353 00bc 4829F9   		subq	%rdi, %rcx
 354 00bf 81C1E803 		addl	$1000, %ecx
 354      0000
 355 00c5 C1E903   		shrl	$3, %ecx
 356 00c8 89C9     		movl	%ecx, %ecx
 357 00ca B8000000 		movl	$0, %eax
 357      00
 358 00cf F348AB   		rep stosq
 359 00d2 BAE80300 		movl	$1000, %edx
 359      00
 360 00d7 4C89E6   		movq	%r12, %rsi
 361 00da 488D3D00 		leaq	.LC11(%rip), %rdi
 361      000000
 362 00e1 E8000000 		call	readlink@PLT
 362      00
 363 00e6 4863E8   		movslq	%eax, %rbp
 364 00e9 4889E9   		movq	%rbp, %rcx
 365 00ec 4C89E2   		movq	%r12, %rdx
 366 00ef 488D3500 		leaq	.LC12(%rip), %rsi
 366      000000
 367 00f6 BF010000 		movl	$1, %edi
 367      00
 368 00fb B8000000 		movl	$0, %eax
 368      00
 369 0100 E8000000 		call	__printf_chk@PLT
 369      00
 370 0105 488D7D01 		leaq	1(%rbp), %rdi
 371 0109 E8000000 		call	malloc@PLT
 371      00
 372 010e 4889C3   		movq	%rax, %rbx
 373 0111 4889EA   		movq	%rbp, %rdx
 374 0114 4C89E6   		movq	%r12, %rsi
 375 0117 4889C7   		movq	%rax, %rdi
 376 011a E8000000 		call	memcpy@PLT
 376      00
GAS LISTING /tmp/cccgCu8u.s 			page 12


 377 011f 488D042B 		leaq	(%rbx,%rbp), %rax
 378 0123 C60000   		movb	$0, (%rax)
 379 0126 BA000000 		movl	$0, %edx
 379      00
 380 012b EB15     		jmp	.L18
 381              	.L19:
 382 012d 4883E801 		subq	$1, %rax
 383              	.L21:
 384 0131 80382F   		cmpb	$47, (%rax)
 385 0134 75F7     		jne	.L19
 386 0136 83C201   		addl	$1, %edx
 387 0139 83FA01   		cmpl	$1, %edx
 388 013c 7F04     		jg	.L18
 389 013e 4883E801 		subq	$1, %rax
 390              	.L18:
 391 0142 83FA01   		cmpl	$1, %edx
 392 0145 7EEA     		jle	.L21
 393 0147 C60000   		movb	$0, (%rax)
 394 014a 4C89E7   		movq	%r12, %rdi
 395 014d E8000000 		call	free@PLT
 395      00
 396 0152 4889DF   		movq	%rbx, %rdi
 397 0155 E8000000 		call	strlen@PLT
 397      00
 398 015a 4889C1   		movq	%rax, %rcx
 399 015d 4889DA   		movq	%rbx, %rdx
 400 0160 488D3500 		leaq	.LC13(%rip), %rsi
 400      000000
 401 0167 BF010000 		movl	$1, %edi
 401      00
 402 016c B8000000 		movl	$0, %eax
 402      00
 403 0171 E8000000 		call	__printf_chk@PLT
 403      00
 404 0176 BE400100 		movl	$320, %esi
 404      00
 405 017b 488D3D00 		leaq	InputSignal_f32_1kHz_15kHz(%rip), %rdi
 405      000000
 406 0182 E8000000 		call	dsp_sig_mean@PLT
 406      00
 407 0187 BE400100 		movl	$320, %esi
 407      00
 408 018c F20F1104 		movsd	%xmm0, (%rsp)
 408      24
 409 0191 488D3D00 		leaq	InputSignal_f32_1kHz_15kHz(%rip), %rdi
 409      000000
 410 0198 E8000000 		call	dsp_sig_variance@PLT
 410      00
 411 019d F20F1144 		movsd	%xmm0, 8(%rsp)
 411      2408
 412 01a3 E8000000 		call	dsp_sig_std_dev@PLT
 412      00
 413 01a8 F20F1144 		movsd	%xmm0, 16(%rsp)
 413      2410
 414 01ae 488D3500 		leaq	.LC14(%rip), %rsi
 414      000000
 415 01b5 BF010000 		movl	$1, %edi
GAS LISTING /tmp/cccgCu8u.s 			page 13


 415      00
 416 01ba B8000000 		movl	$0, %eax
 416      00
 417 01bf E8000000 		call	__printf_chk@PLT
 417      00
 418 01c4 488D3500 		leaq	.LC15(%rip), %rsi
 418      000000
 419 01cb BF010000 		movl	$1, %edi
 419      00
 420 01d0 B8000000 		movl	$0, %eax
 420      00
 421 01d5 E8000000 		call	__printf_chk@PLT
 421      00
 422 01da F20F1004 		movsd	(%rsp), %xmm0
 422      24
 423 01df 488D3500 		leaq	.LC16(%rip), %rsi
 423      000000
 424 01e6 BF010000 		movl	$1, %edi
 424      00
 425 01eb B8010000 		movl	$1, %eax
 425      00
 426 01f0 E8000000 		call	__printf_chk@PLT
 426      00
 427 01f5 F20F1044 		movsd	8(%rsp), %xmm0
 427      2408
 428 01fb 488D3500 		leaq	.LC17(%rip), %rsi
 428      000000
 429 0202 BF010000 		movl	$1, %edi
 429      00
 430 0207 B8010000 		movl	$1, %eax
 430      00
 431 020c E8000000 		call	__printf_chk@PLT
 431      00
 432 0211 F20F1044 		movsd	16(%rsp), %xmm0
 432      2410
 433 0217 488D3500 		leaq	.LC18(%rip), %rsi
 433      000000
 434 021e BF010000 		movl	$1, %edi
 434      00
 435 0223 B8010000 		movl	$1, %eax
 435      00
 436 0228 E8000000 		call	__printf_chk@PLT
 436      00
 437 022d 488D3500 		leaq	.LC19(%rip), %rsi
 437      000000
 438 0234 BF010000 		movl	$1, %edi
 438      00
 439 0239 B8000000 		movl	$0, %eax
 439      00
 440 023e E8000000 		call	__printf_chk@PLT
 440      00
 441 0243 488D3500 		leaq	.LC20(%rip), %rsi
 441      000000
 442 024a BF010000 		movl	$1, %edi
 442      00
 443 024f B8000000 		movl	$0, %eax
 443      00
GAS LISTING /tmp/cccgCu8u.s 			page 14


 444 0254 E8000000 		call	__printf_chk@PLT
 444      00
 445 0259 BE080000 		movl	$8, %esi
 445      00
 446 025e BF5D0100 		movl	$349, %edi
 446      00
 447 0263 E8000000 		call	calloc@PLT
 447      00
 448 0268 4889C5   		movq	%rax, %rbp
 449 026b 4889C7   		movq	%rax, %rdi
 450 026e E8000000 		call	check_mem_alloc
 450      00
 451 0273 41B81D00 		movl	$29, %r8d
 451      0000
 452 0279 488D0D00 		leaq	Impulse_response(%rip), %rcx
 452      000000
 453 0280 BA400100 		movl	$320, %edx
 453      00
 454 0285 488D3500 		leaq	InputSignal_f32_1kHz_15kHz(%rip), %rsi
 454      000000
 455 028c 4889EF   		movq	%rbp, %rdi
 456 028f E8000000 		call	dsp_convolution@PLT
 456      00
 457 0294 B9400100 		movl	$320, %ecx
 457      00
 458 0299 488D1500 		leaq	InputSignal_f32_1kHz_15kHz(%rip), %rdx
 458      000000
 459 02a0 488D3500 		leaq	.LC21(%rip), %rsi
 459      000000
 460 02a7 4889DF   		movq	%rbx, %rdi
 461 02aa E8000000 		call	create_dat_file
 461      00
 462 02af B91D0000 		movl	$29, %ecx
 462      00
 463 02b4 488D1500 		leaq	Impulse_response(%rip), %rdx
 463      000000
 464 02bb 488D3500 		leaq	.LC22(%rip), %rsi
 464      000000
 465 02c2 4889DF   		movq	%rbx, %rdi
 466 02c5 E8000000 		call	create_dat_file
 466      00
 467 02ca B95D0100 		movl	$349, %ecx
 467      00
 468 02cf 4889EA   		movq	%rbp, %rdx
 469 02d2 488D3500 		leaq	.LC23(%rip), %rsi
 469      000000
 470 02d9 4889DF   		movq	%rbx, %rdi
 471 02dc E8000000 		call	create_dat_file
 471      00
 472 02e1 BE080000 		movl	$8, %esi
 472      00
 473 02e6 BF400100 		movl	$320, %edi
 473      00
 474 02eb E8000000 		call	calloc@PLT
 474      00
 475 02f0 4889C5   		movq	%rax, %rbp
 476 02f3 4889C7   		movq	%rax, %rdi
GAS LISTING /tmp/cccgCu8u.s 			page 15


 477 02f6 E8000000 		call	check_mem_alloc
 477      00
 478 02fb BA400100 		movl	$320, %edx
 478      00
 479 0300 488D3500 		leaq	InputSignal_f32_1kHz_15kHz(%rip), %rsi
 479      000000
 480 0307 4889EF   		movq	%rbp, %rdi
 481 030a E8000000 		call	dsp_running_sum@PLT
 481      00
 482 030f B9400100 		movl	$320, %ecx
 482      00
 483 0314 488D1500 		leaq	InputSignal_f32_1kHz_15kHz(%rip), %rdx
 483      000000
 484 031b 488D3500 		leaq	.LC24(%rip), %rsi
 484      000000
 485 0322 4889DF   		movq	%rbx, %rdi
 486 0325 E8000000 		call	create_dat_file
 486      00
 487 032a B9400100 		movl	$320, %ecx
 487      00
 488 032f 4889EA   		movq	%rbp, %rdx
 489 0332 488D3500 		leaq	.LC25(%rip), %rsi
 489      000000
 490 0339 4889DF   		movq	%rbx, %rdi
 491 033c E8000000 		call	create_dat_file
 491      00
 492 0341 4889EF   		movq	%rbp, %rdi
 493 0344 E8000000 		call	free@PLT
 493      00
 494 0349 488D3500 		leaq	.LC10(%rip), %rsi
 494      000000
 495 0350 BF010000 		movl	$1, %edi
 495      00
 496 0355 B8000000 		movl	$0, %eax
 496      00
 497 035a E8000000 		call	__printf_chk@PLT
 497      00
 498 035f 488D3500 		leaq	.LC26(%rip), %rsi
 498      000000
 499 0366 BF010000 		movl	$1, %edi
 499      00
 500 036b B8000000 		movl	$0, %eax
 500      00
 501 0370 E8000000 		call	__printf_chk@PLT
 501      00
 502 0375 488D3500 		leaq	.LC27(%rip), %rsi
 502      000000
 503 037c BF010000 		movl	$1, %edi
 503      00
 504 0381 B8000000 		movl	$0, %eax
 504      00
 505 0386 E8000000 		call	__printf_chk@PLT
 505      00
 506 038b BE080000 		movl	$8, %esi
 506      00
 507 0390 BFA00000 		movl	$160, %edi
 507      00
GAS LISTING /tmp/cccgCu8u.s 			page 16


 508 0395 E8000000 		call	calloc@PLT
 508      00
 509 039a 4989C6   		movq	%rax, %r14
 510 039d 4889C7   		movq	%rax, %rdi
 511 03a0 E8000000 		call	check_mem_alloc
 511      00
 512 03a5 BE080000 		movl	$8, %esi
 512      00
 513 03aa BFA00000 		movl	$160, %edi
 513      00
 514 03af E8000000 		call	calloc@PLT
 514      00
 515 03b4 4989C5   		movq	%rax, %r13
 516 03b7 4889C7   		movq	%rax, %rdi
 517 03ba E8000000 		call	check_mem_alloc
 517      00
 518 03bf BE080000 		movl	$8, %esi
 518      00
 519 03c4 BF400100 		movl	$320, %edi
 519      00
 520 03c9 E8000000 		call	calloc@PLT
 520      00
 521 03ce 4889C5   		movq	%rax, %rbp
 522 03d1 4889C7   		movq	%rax, %rdi
 523 03d4 E8000000 		call	check_mem_alloc
 523      00
 524 03d9 BE080000 		movl	$8, %esi
 524      00
 525 03de BFA00000 		movl	$160, %edi
 525      00
 526 03e3 E8000000 		call	calloc@PLT
 526      00
 527 03e8 4989C7   		movq	%rax, %r15
 528 03eb 4889C7   		movq	%rax, %rdi
 529 03ee E8000000 		call	check_mem_alloc
 529      00
 530 03f3 B9400100 		movl	$320, %ecx
 530      00
 531 03f8 4C89EA   		movq	%r13, %rdx
 532 03fb 4C89F6   		movq	%r14, %rsi
 533 03fe 488D3D00 		leaq	InputSignal_f32_1kHz_15kHz(%rip), %rdi
 533      000000
 534 0405 E8000000 		call	dsp_dft@PLT
 534      00
 535 040a B9A00000 		movl	$160, %ecx
 535      00
 536 040f 4C89EA   		movq	%r13, %rdx
 537 0412 4C89F6   		movq	%r14, %rsi
 538 0415 4C89FF   		movq	%r15, %rdi
 539 0418 E8000000 		call	dsp_dft_magnitude@PLT
 539      00
 540 041d B9400100 		movl	$320, %ecx
 540      00
 541 0422 488D1500 		leaq	InputSignal_f32_1kHz_15kHz(%rip), %rdx
 541      000000
 542 0429 488D3500 		leaq	.LC28(%rip), %rsi
 542      000000
GAS LISTING /tmp/cccgCu8u.s 			page 17


 543 0430 4889DF   		movq	%rbx, %rdi
 544 0433 E8000000 		call	create_dat_file
 544      00
 545 0438 B9A00000 		movl	$160, %ecx
 545      00
 546 043d 4C89F2   		movq	%r14, %rdx
 547 0440 488D3500 		leaq	.LC29(%rip), %rsi
 547      000000
 548 0447 4889DF   		movq	%rbx, %rdi
 549 044a E8000000 		call	create_dat_file
 549      00
 550 044f B9A00000 		movl	$160, %ecx
 550      00
 551 0454 4C89EA   		movq	%r13, %rdx
 552 0457 488D3500 		leaq	.LC30(%rip), %rsi
 552      000000
 553 045e 4889DF   		movq	%rbx, %rdi
 554 0461 E8000000 		call	create_dat_file
 554      00
 555 0466 B9400100 		movl	$320, %ecx
 555      00
 556 046b 4C89EA   		movq	%r13, %rdx
 557 046e 4C89F6   		movq	%r14, %rsi
 558 0471 4889EF   		movq	%rbp, %rdi
 559 0474 E8000000 		call	dsp_idft@PLT
 559      00
 560 0479 B9400100 		movl	$320, %ecx
 560      00
 561 047e 48896C24 		movq	%rbp, 24(%rsp)
 561      18
 562 0483 4889EA   		movq	%rbp, %rdx
 563 0486 488D3500 		leaq	.LC31(%rip), %rsi
 563      000000
 564 048d 4889DF   		movq	%rbx, %rdi
 565 0490 E8000000 		call	create_dat_file
 565      00
 566 0495 B9A00000 		movl	$160, %ecx
 566      00
 567 049a 4C89FA   		movq	%r15, %rdx
 568 049d 488D3500 		leaq	.LC32(%rip), %rsi
 568      000000
 569 04a4 4889DF   		movq	%rbx, %rdi
 570 04a7 E8000000 		call	create_dat_file
 570      00
 571 04ac 488D3500 		leaq	.LC10(%rip), %rsi
 571      000000
 572 04b3 BF010000 		movl	$1, %edi
 572      00
 573 04b8 B8000000 		movl	$0, %eax
 573      00
 574 04bd E8000000 		call	__printf_chk@PLT
 574      00
 575 04c2 BE080000 		movl	$8, %esi
 575      00
 576 04c7 BF400100 		movl	$320, %edi
 576      00
 577 04cc E8000000 		call	calloc@PLT
GAS LISTING /tmp/cccgCu8u.s 			page 18


 577      00
 578 04d1 4989C4   		movq	%rax, %r12
 579 04d4 4889C7   		movq	%rax, %rdi
 580 04d7 E8000000 		call	check_mem_alloc
 580      00
 581 04dc BE080000 		movl	$8, %esi
 581      00
 582 04e1 BF400100 		movl	$320, %edi
 582      00
 583 04e6 E8000000 		call	calloc@PLT
 583      00
 584 04eb 4889C5   		movq	%rax, %rbp
 585 04ee 4889C7   		movq	%rax, %rdi
 586 04f1 E8000000 		call	check_mem_alloc
 586      00
 587 04f6 BE080000 		movl	$8, %esi
 587      00
 588 04fb BF800200 		movl	$640, %edi
 588      00
 589 0500 E8000000 		call	calloc@PLT
 589      00
 590 0505 48890424 		movq	%rax, (%rsp)
 591 0509 4889C7   		movq	%rax, %rdi
 592 050c E8000000 		call	check_mem_alloc
 592      00
 593 0511 B9800200 		movl	$640, %ecx
 593      00
 594 0516 4889EA   		movq	%rbp, %rdx
 595 0519 4C89E6   		movq	%r12, %rsi
 596 051c 488D3D00 		leaq	ECG_signal(%rip), %rdi
 596      000000
 597 0523 E8000000 		call	dsp_dft@PLT
 597      00
 598 0528 B9800200 		movl	$640, %ecx
 598      00
 599 052d 488D1500 		leaq	ECG_signal(%rip), %rdx
 599      000000
 600 0534 488D3500 		leaq	.LC33(%rip), %rsi
 600      000000
 601 053b 4889DF   		movq	%rbx, %rdi
 602 053e E8000000 		call	create_dat_file
 602      00
 603 0543 B9400100 		movl	$320, %ecx
 603      00
 604 0548 4C89E2   		movq	%r12, %rdx
 605 054b 488D3500 		leaq	.LC34(%rip), %rsi
 605      000000
 606 0552 4889DF   		movq	%rbx, %rdi
 607 0555 E8000000 		call	create_dat_file
 607      00
 608 055a B9400100 		movl	$320, %ecx
 608      00
 609 055f 4889EA   		movq	%rbp, %rdx
 610 0562 488D3500 		leaq	.LC35(%rip), %rsi
 610      000000
 611 0569 4889DF   		movq	%rbx, %rdi
 612 056c E8000000 		call	create_dat_file
GAS LISTING /tmp/cccgCu8u.s 			page 19


 612      00
 613 0571 B9800200 		movl	$640, %ecx
 613      00
 614 0576 4889EA   		movq	%rbp, %rdx
 615 0579 4C89E6   		movq	%r12, %rsi
 616 057c 488B3C24 		movq	(%rsp), %rdi
 617 0580 E8000000 		call	dsp_idft@PLT
 617      00
 618 0585 B9800200 		movl	$640, %ecx
 618      00
 619 058a 488B1424 		movq	(%rsp), %rdx
 620 058e 488D3500 		leaq	.LC36(%rip), %rsi
 620      000000
 621 0595 4889DF   		movq	%rbx, %rdi
 622 0598 E8000000 		call	create_dat_file
 622      00
 623 059d BE080000 		movl	$8, %esi
 623      00
 624 05a2 BF400100 		movl	$320, %edi
 624      00
 625 05a7 E8000000 		call	calloc@PLT
 625      00
 626 05ac 48894424 		movq	%rax, 8(%rsp)
 626      08
 627 05b1 4889C7   		movq	%rax, %rdi
 628 05b4 E8000000 		call	check_mem_alloc
 628      00
 629 05b9 BE080000 		movl	$8, %esi
 629      00
 630 05be BF400100 		movl	$320, %edi
 630      00
 631 05c3 E8000000 		call	calloc@PLT
 631      00
 632 05c8 48894424 		movq	%rax, 16(%rsp)
 632      10
 633 05cd 4889C7   		movq	%rax, %rdi
 634 05d0 E8000000 		call	check_mem_alloc
 634      00
 635 05d5 41B84001 		movl	$320, %r8d
 635      0000
 636 05db 4889E9   		movq	%rbp, %rcx
 637 05de 4C89E2   		movq	%r12, %rdx
 638 05e1 488B7424 		movq	16(%rsp), %rsi
 638      10
 639 05e6 488B7C24 		movq	8(%rsp), %rdi
 639      08
 640 05eb E8000000 		call	dsp_rect2polar@PLT
 640      00
 641 05f0 B9400100 		movl	$320, %ecx
 641      00
 642 05f5 488B5424 		movq	8(%rsp), %rdx
 642      08
 643 05fa 488D3500 		leaq	.LC37(%rip), %rsi
 643      000000
 644 0601 4889DF   		movq	%rbx, %rdi
 645 0604 E8000000 		call	create_dat_file
 645      00
GAS LISTING /tmp/cccgCu8u.s 			page 20


 646 0609 B9400100 		movl	$320, %ecx
 646      00
 647 060e 488B5424 		movq	16(%rsp), %rdx
 647      10
 648 0613 488D3500 		leaq	.LC38(%rip), %rsi
 648      000000
 649 061a 4889DF   		movq	%rbx, %rdi
 650 061d E8000000 		call	create_dat_file
 650      00
 651 0622 488D3500 		leaq	.LC10(%rip), %rsi
 651      000000
 652 0629 BF010000 		movl	$1, %edi
 652      00
 653 062e B8000000 		movl	$0, %eax
 653      00
 654 0633 E8000000 		call	__printf_chk@PLT
 654      00
 655 0638 4C89F7   		movq	%r14, %rdi
 656 063b E8000000 		call	free@PLT
 656      00
 657 0640 4C89EF   		movq	%r13, %rdi
 658 0643 E8000000 		call	free@PLT
 658      00
 659 0648 4C89FF   		movq	%r15, %rdi
 660 064b E8000000 		call	free@PLT
 660      00
 661 0650 488B7C24 		movq	24(%rsp), %rdi
 661      18
 662 0655 E8000000 		call	free@PLT
 662      00
 663 065a 4C89E7   		movq	%r12, %rdi
 664 065d E8000000 		call	free@PLT
 664      00
 665 0662 4889EF   		movq	%rbp, %rdi
 666 0665 E8000000 		call	free@PLT
 666      00
 667 066a 488B3C24 		movq	(%rsp), %rdi
 668 066e E8000000 		call	free@PLT
 668      00
 669 0673 488B7C24 		movq	16(%rsp), %rdi
 669      10
 670 0678 E8000000 		call	free@PLT
 670      00
 671 067d 488B7C24 		movq	8(%rsp), %rdi
 671      08
 672 0682 E8000000 		call	free@PLT
 672      00
 673 0687 488D3500 		leaq	.LC39(%rip), %rsi
 673      000000
 674 068e BF010000 		movl	$1, %edi
 674      00
 675 0693 B8000000 		movl	$0, %eax
 675      00
 676 0698 E8000000 		call	__printf_chk@PLT
 676      00
 677 069d 488D3500 		leaq	.LC40(%rip), %rsi
 677      000000
GAS LISTING /tmp/cccgCu8u.s 			page 21


 678 06a4 BF010000 		movl	$1, %edi
 678      00
 679 06a9 B8000000 		movl	$0, %eax
 679      00
 680 06ae E8000000 		call	__printf_chk@PLT
 680      00
 681 06b3 BE080000 		movl	$8, %esi
 681      00
 682 06b8 BFF50100 		movl	$501, %edi
 682      00
 683 06bd E8000000 		call	calloc@PLT
 683      00
 684 06c2 4989C4   		movq	%rax, %r12
 685 06c5 4889C7   		movq	%rax, %rdi
 686 06c8 E8000000 		call	check_mem_alloc
 686      00
 687 06cd BE080000 		movl	$8, %esi
 687      00
 688 06d2 BFF50100 		movl	$501, %edi
 688      00
 689 06d7 E8000000 		call	calloc@PLT
 689      00
 690 06dc 4889C5   		movq	%rax, %rbp
 691 06df 4889C7   		movq	%rax, %rdi
 692 06e2 E8000000 		call	check_mem_alloc
 692      00
 693 06e7 41B8F501 		movl	$501, %r8d
 693      0000
 694 06ed 4889E9   		movq	%rbp, %rcx
 695 06f0 4C89E2   		movq	%r12, %rdx
 696 06f3 488D3500 		leaq	sig_20Hz_imx(%rip), %rsi
 696      000000
 697 06fa 488D3D00 		leaq	sig_20Hz_rex(%rip), %rdi
 697      000000
 698 0701 E8000000 		call	dsp_cdft@PLT
 698      00
 699 0706 B9F50100 		movl	$501, %ecx
 699      00
 700 070b 488D1500 		leaq	sig_20Hz_rex(%rip), %rdx
 700      000000
 701 0712 488D3500 		leaq	.LC41(%rip), %rsi
 701      000000
 702 0719 4889DF   		movq	%rbx, %rdi
 703 071c E8000000 		call	create_dat_file
 703      00
 704 0721 B9F50100 		movl	$501, %ecx
 704      00
 705 0726 488D1500 		leaq	sig_20Hz_imx(%rip), %rdx
 705      000000
 706 072d 488D3500 		leaq	.LC42(%rip), %rsi
 706      000000
 707 0734 4889DF   		movq	%rbx, %rdi
 708 0737 E8000000 		call	create_dat_file
 708      00
 709 073c B9F50100 		movl	$501, %ecx
 709      00
 710 0741 4C89E2   		movq	%r12, %rdx
GAS LISTING /tmp/cccgCu8u.s 			page 22


 711 0744 488D3500 		leaq	.LC43(%rip), %rsi
 711      000000
 712 074b 4889DF   		movq	%rbx, %rdi
 713 074e E8000000 		call	create_dat_file
 713      00
 714 0753 B9F50100 		movl	$501, %ecx
 714      00
 715 0758 4889EA   		movq	%rbp, %rdx
 716 075b 488D3500 		leaq	.LC44(%rip), %rsi
 716      000000
 717 0762 4889DF   		movq	%rbx, %rdi
 718 0765 E8000000 		call	create_dat_file
 718      00
 719 076a 488D3500 		leaq	.LC10(%rip), %rsi
 719      000000
 720 0771 BF010000 		movl	$1, %edi
 720      00
 721 0776 B8000000 		movl	$0, %eax
 721      00
 722 077b E8000000 		call	__printf_chk@PLT
 722      00
 723 0780 4C89E7   		movq	%r12, %rdi
 724 0783 E8000000 		call	free@PLT
 724      00
 725 0788 4889EF   		movq	%rbp, %rdi
 726 078b E8000000 		call	free@PLT
 726      00
 727 0790 B8000000 		movl	$0, %eax
 727      00
 728 0795 4883C428 		addq	$40, %rsp
 729              		.cfi_def_cfa_offset 56
 730 0799 5B       		popq	%rbx
 731              		.cfi_def_cfa_offset 48
 732 079a 5D       		popq	%rbp
 733              		.cfi_def_cfa_offset 40
 734 079b 415C     		popq	%r12
 735              		.cfi_def_cfa_offset 32
 736 079d 415D     		popq	%r13
 737              		.cfi_def_cfa_offset 24
 738 079f 415E     		popq	%r14
 739              		.cfi_def_cfa_offset 16
 740 07a1 415F     		popq	%r15
 741              		.cfi_def_cfa_offset 8
 742 07a3 C3       		ret
 743              		.cfi_endproc
 744              	.LFE36:
 746              		.ident	"GCC: (Ubuntu 7.5.0-3ubuntu1~18.04) 7.5.0"
 747              		.section	.note.GNU-stack,"",@progbits
GAS LISTING /tmp/cccgCu8u.s 			page 23


DEFINED SYMBOLS
                            *ABS*:0000000000000000 main.c
     /tmp/cccgCu8u.s:8      .text.check_mem_alloc:0000000000000000 check_mem_alloc
     /tmp/cccgCu8u.s:30     .text.prepare_path:0000000000000000 prepare_path
     /tmp/cccgCu8u.s:95     .text.create_dat_file:0000000000000000 create_dat_file
     /tmp/cccgCu8u.s:298    .text.main:0000000000000000 main
     /tmp/cccgCu8u.s:4      .rodata.check_mem_alloc.str1.1:0000000000000000 .LC0
     /tmp/cccgCu8u.s:81     .rodata.create_dat_file.str1.1:0000000000000000 .LC1
     /tmp/cccgCu8u.s:85     .rodata.create_dat_file.str1.8:0000000000000000 .LC2
     /tmp/cccgCu8u.s:88     .rodata.create_dat_file.str1.1:0000000000000003 .LC3
     /tmp/cccgCu8u.s:90     .rodata.create_dat_file.str1.1:0000000000000007 .LC4
     /tmp/cccgCu8u.s:181    .rodata.main.str1.1:0000000000000000 .LC5
     /tmp/cccgCu8u.s:183    .rodata.main.str1.1:0000000000000015 .LC6
     /tmp/cccgCu8u.s:185    .rodata.main.str1.1:000000000000002a .LC7
     /tmp/cccgCu8u.s:189    .rodata.main.str1.8:0000000000000000 .LC8
     /tmp/cccgCu8u.s:192    .rodata.main.str1.8:0000000000000040 .LC9
     /tmp/cccgCu8u.s:195    .rodata.main.str1.1:0000000000000044 .LC10
     /tmp/cccgCu8u.s:197    .rodata.main.str1.1:0000000000000046 .LC11
     /tmp/cccgCu8u.s:199    .rodata.main.str1.1:0000000000000055 .LC12
     /tmp/cccgCu8u.s:203    .rodata.main.str1.8:00000000000000a8 .LC13
     /tmp/cccgCu8u.s:206    .rodata.main.str1.8:00000000000000d0 .LC14
     /tmp/cccgCu8u.s:209    .rodata.main.str1.8:0000000000000110 .LC15
     /tmp/cccgCu8u.s:212    .rodata.main.str1.1:0000000000000072 .LC16
     /tmp/cccgCu8u.s:214    .rodata.main.str1.1:0000000000000086 .LC17
     /tmp/cccgCu8u.s:216    .rodata.main.str1.1:000000000000009a .LC18
     /tmp/cccgCu8u.s:218    .rodata.main.str1.1:00000000000000af .LC19
     /tmp/cccgCu8u.s:220    .rodata.main.str1.1:00000000000000c1 .LC20
     /tmp/cccgCu8u.s:224    .rodata.main.str1.8:0000000000000150 .LC21
     /tmp/cccgCu8u.s:227    .rodata.main.str1.8:0000000000000178 .LC22
     /tmp/cccgCu8u.s:230    .rodata.main.str1.8:00000000000001a8 .LC23
     /tmp/cccgCu8u.s:233    .rodata.main.str1.8:00000000000001d0 .LC24
     /tmp/cccgCu8u.s:236    .rodata.main.str1.8:00000000000001f8 .LC25
     /tmp/cccgCu8u.s:239    .rodata.main.str1.8:0000000000000220 .LC26
     /tmp/cccgCu8u.s:242    .rodata.main.str1.8:0000000000000248 .LC27
     /tmp/cccgCu8u.s:245    .rodata.main.str1.1:00000000000000d3 .LC28
     /tmp/cccgCu8u.s:247    .rodata.main.str1.1:00000000000000f0 .LC29
     /tmp/cccgCu8u.s:249    .rodata.main.str1.1:000000000000010b .LC30
     /tmp/cccgCu8u.s:253    .rodata.main.str1.8:0000000000000270 .LC31
     /tmp/cccgCu8u.s:256    .rodata.main.str1.1:0000000000000126 .LC32
     /tmp/cccgCu8u.s:260    .rodata.main.str1.8:0000000000000290 .LC33
     /tmp/cccgCu8u.s:263    .rodata.main.str1.8:00000000000002b8 .LC34
     /tmp/cccgCu8u.s:266    .rodata.main.str1.8:00000000000002d8 .LC35
     /tmp/cccgCu8u.s:269    .rodata.main.str1.8:00000000000002f8 .LC36
     /tmp/cccgCu8u.s:272    .rodata.main.str1.8:0000000000000320 .LC37
     /tmp/cccgCu8u.s:275    .rodata.main.str1.8:0000000000000340 .LC38
     /tmp/cccgCu8u.s:278    .rodata.main.str1.8:0000000000000368 .LC39
     /tmp/cccgCu8u.s:281    .rodata.main.str1.8:0000000000000398 .LC40
     /tmp/cccgCu8u.s:284    .rodata.main.str1.8:00000000000003c8 .LC41
     /tmp/cccgCu8u.s:287    .rodata.main.str1.8:00000000000003e8 .LC42
     /tmp/cccgCu8u.s:290    .rodata.main.str1.8:0000000000000408 .LC43
     /tmp/cccgCu8u.s:293    .rodata.main.str1.8:0000000000000430 .LC44

UNDEFINED SYMBOLS
stderr
_GLOBAL_OFFSET_TABLE_
__fprintf_chk
exit
GAS LISTING /tmp/cccgCu8u.s 			page 24


strlen
malloc
strcpy
fopen
stdout
fclose
free
__printf_chk
readlink
memcpy
InputSignal_f32_1kHz_15kHz
dsp_sig_mean
dsp_sig_variance
dsp_sig_std_dev
calloc
Impulse_response
dsp_convolution
dsp_running_sum
dsp_dft
dsp_dft_magnitude
dsp_idft
ECG_signal
dsp_rect2polar
sig_20Hz_imx
sig_20Hz_rex
dsp_cdft
